
build/briey.elf:     file format elf32-littleriscv


Disassembly of section .vector:

80000000 <crtStart>:
80000000:	0b00006f          	j	800000b0 <crtInit>
80000004:	00000013          	nop
80000008:	00000013          	nop
8000000c:	00000013          	nop
80000010:	00000013          	nop
80000014:	00000013          	nop
80000018:	00000013          	nop
8000001c:	00000013          	nop

80000020 <trap_entry>:
80000020:	fe112e23          	sw	ra,-4(sp)
80000024:	fe512c23          	sw	t0,-8(sp)
80000028:	fe612a23          	sw	t1,-12(sp)
8000002c:	fe712823          	sw	t2,-16(sp)
80000030:	fea12623          	sw	a0,-20(sp)
80000034:	feb12423          	sw	a1,-24(sp)
80000038:	fec12223          	sw	a2,-28(sp)
8000003c:	fed12023          	sw	a3,-32(sp)
80000040:	fce12e23          	sw	a4,-36(sp)
80000044:	fcf12c23          	sw	a5,-40(sp)
80000048:	fd012a23          	sw	a6,-44(sp)
8000004c:	fd112823          	sw	a7,-48(sp)
80000050:	fdc12623          	sw	t3,-52(sp)
80000054:	fdd12423          	sw	t4,-56(sp)
80000058:	fde12223          	sw	t5,-60(sp)
8000005c:	fdf12023          	sw	t6,-64(sp)
80000060:	fc010113          	addi	sp,sp,-64
80000064:	1c8000ef          	jal	ra,8000022c <irqCallback>
80000068:	03c12083          	lw	ra,60(sp)
8000006c:	03812283          	lw	t0,56(sp)
80000070:	03412303          	lw	t1,52(sp)
80000074:	03012383          	lw	t2,48(sp)
80000078:	02c12503          	lw	a0,44(sp)
8000007c:	02812583          	lw	a1,40(sp)
80000080:	02412603          	lw	a2,36(sp)
80000084:	02012683          	lw	a3,32(sp)
80000088:	01c12703          	lw	a4,28(sp)
8000008c:	01812783          	lw	a5,24(sp)
80000090:	01412803          	lw	a6,20(sp)
80000094:	01012883          	lw	a7,16(sp)
80000098:	00c12e03          	lw	t3,12(sp)
8000009c:	00812e83          	lw	t4,8(sp)
800000a0:	00412f03          	lw	t5,4(sp)
800000a4:	00012f83          	lw	t6,0(sp)
800000a8:	04010113          	addi	sp,sp,64
800000ac:	30200073          	mret

800000b0 <crtInit>:
800000b0:	00002197          	auipc	gp,0x2
800000b4:	af818193          	addi	gp,gp,-1288 # 80001ba8 <__global_pointer$>
800000b8:	01818113          	addi	sp,gp,24 # 80001bc0 <_stack_start>

800000bc <bss_init>:
800000bc:	00001517          	auipc	a0,0x1
800000c0:	2ec50513          	addi	a0,a0,748 # 800013a8 <trap_induced_ebreak.0>
800000c4:	81018593          	addi	a1,gp,-2032 # 800013b8 <_bss_end>

800000c8 <bss_loop>:
800000c8:	00b50863          	beq	a0,a1,800000d8 <bss_done>
800000cc:	00052023          	sw	zero,0(a0)
800000d0:	00450513          	addi	a0,a0,4
800000d4:	ff5ff06f          	j	800000c8 <bss_loop>

800000d8 <bss_done>:
800000d8:	00001517          	auipc	a0,0x1
800000dc:	2d050513          	addi	a0,a0,720 # 800013a8 <trap_induced_ebreak.0>
800000e0:	ffc10113          	addi	sp,sp,-4

800000e4 <ctors_loop>:
800000e4:	00001597          	auipc	a1,0x1
800000e8:	2c458593          	addi	a1,a1,708 # 800013a8 <trap_induced_ebreak.0>
800000ec:	00b50e63          	beq	a0,a1,80000108 <ctors_done>
800000f0:	00052683          	lw	a3,0(a0)
800000f4:	00450513          	addi	a0,a0,4
800000f8:	00a12023          	sw	a0,0(sp)
800000fc:	000680e7          	jalr	a3
80000100:	00012503          	lw	a0,0(sp)
80000104:	fe1ff06f          	j	800000e4 <ctors_loop>

80000108 <ctors_done>:
80000108:	00410113          	addi	sp,sp,4
8000010c:	018010ef          	jal	ra,80001124 <main>

80000110 <infinitLoop>:
80000110:	0000006f          	j	80000110 <infinitLoop>

Disassembly of section .memory:

80000114 <uart_applyConfig.constprop.0>:
80000114:	f00107b7          	lui	a5,0xf0010
80000118:	03500713          	li	a4,53
8000011c:	00e7a423          	sw	a4,8(a5) # f0010008 <_stack_start+0x7000e448>
80000120:	00700713          	li	a4,7
80000124:	00e7a623          	sw	a4,12(a5)
80000128:	00008067          	ret

8000012c <uart_writeAvailability.constprop.0>:
8000012c:	f00107b7          	lui	a5,0xf0010
80000130:	0047a503          	lw	a0,4(a5) # f0010004 <_stack_start+0x7000e444>
80000134:	01055513          	srli	a0,a0,0x10
80000138:	0ff57513          	zext.b	a0,a0
8000013c:	00008067          	ret

80000140 <uart_write.constprop.0>:
80000140:	ff010113          	addi	sp,sp,-16
80000144:	00812423          	sw	s0,8(sp)
80000148:	00112623          	sw	ra,12(sp)
8000014c:	00050413          	mv	s0,a0
80000150:	fddff0ef          	jal	ra,8000012c <uart_writeAvailability.constprop.0>
80000154:	fe050ee3          	beqz	a0,80000150 <uart_write.constprop.0+0x10>
80000158:	f00107b7          	lui	a5,0xf0010
8000015c:	00c12083          	lw	ra,12(sp)
80000160:	0087a023          	sw	s0,0(a5) # f0010000 <_stack_start+0x7000e440>
80000164:	00812403          	lw	s0,8(sp)
80000168:	01010113          	addi	sp,sp,16
8000016c:	00008067          	ret

80000170 <print>:
80000170:	ff010113          	addi	sp,sp,-16
80000174:	00812423          	sw	s0,8(sp)
80000178:	00112623          	sw	ra,12(sp)
8000017c:	00050413          	mv	s0,a0
80000180:	00054503          	lbu	a0,0(a0)
80000184:	00050a63          	beqz	a0,80000198 <print+0x28>
80000188:	00140413          	addi	s0,s0,1
8000018c:	fb5ff0ef          	jal	ra,80000140 <uart_write.constprop.0>
80000190:	00044503          	lbu	a0,0(s0)
80000194:	fe051ae3          	bnez	a0,80000188 <print+0x18>
80000198:	00c12083          	lw	ra,12(sp)
8000019c:	00812403          	lw	s0,8(sp)
800001a0:	01010113          	addi	sp,sp,16
800001a4:	00008067          	ret

800001a8 <flashes>:
800001a8:	fe010113          	addi	sp,sp,-32
800001ac:	00812c23          	sw	s0,24(sp)
800001b0:	00000413          	li	s0,0
800001b4:	00040513          	mv	a0,s0
800001b8:	00912a23          	sw	s1,20(sp)
800001bc:	01212823          	sw	s2,16(sp)
800001c0:	01312623          	sw	s3,12(sp)
800001c4:	01412423          	sw	s4,8(sp)
800001c8:	00112e23          	sw	ra,28(sp)
800001cc:	000109b7          	lui	s3,0x10
800001d0:	fa1ff0ef          	jal	ra,80000170 <print>
800001d4:	00400493          	li	s1,4
800001d8:	f0000937          	lui	s2,0xf0000
800001dc:	fff98993          	addi	s3,s3,-1 # ffff <_stack_size+0xf7ff>
800001e0:	00a00a13          	li	s4,10
800001e4:	00140793          	addi	a5,s0,1
800001e8:	0084ee63          	bltu	s1,s0,80000204 <flashes+0x5c>
800001ec:	00092223          	sw	zero,4(s2) # f0000004 <_stack_start+0x6fffe444>
800001f0:	00078413          	mv	s0,a5
800001f4:	00040513          	mv	a0,s0
800001f8:	f79ff0ef          	jal	ra,80000170 <print>
800001fc:	00140793          	addi	a5,s0,1
80000200:	fe84f6e3          	bgeu	s1,s0,800001ec <flashes+0x44>
80000204:	01392223          	sw	s3,4(s2)
80000208:	ff4794e3          	bne	a5,s4,800001f0 <flashes+0x48>
8000020c:	01c12083          	lw	ra,28(sp)
80000210:	01812403          	lw	s0,24(sp)
80000214:	01412483          	lw	s1,20(sp)
80000218:	01012903          	lw	s2,16(sp)
8000021c:	00c12983          	lw	s3,12(sp)
80000220:	00812a03          	lw	s4,8(sp)
80000224:	02010113          	addi	sp,sp,32
80000228:	00008067          	ret

8000022c <irqCallback>:
8000022c:	341025f3          	csrr	a1,mepc
80000230:	34302673          	csrr	a2,mtval
80000234:	342026f3          	csrr	a3,mcause
80000238:	800017b7          	lui	a5,0x80001
8000023c:	3a87a703          	lw	a4,936(a5) # 800013a8 <_stack_start+0xfffff7e8>
80000240:	02071263          	bnez	a4,80000264 <irqCallback+0x38>
80000244:	80b1a623          	sw	a1,-2036(gp) # 800013b4 <exception_addr>
80000248:	80001737          	lui	a4,0x80001
8000024c:	3ac72823          	sw	a2,944(a4) # 800013b0 <_stack_start+0xfffff7f0>
80000250:	80001737          	lui	a4,0x80001
80000254:	3ad72623          	sw	a3,940(a4) # 800013ac <_stack_start+0xfffff7ec>
80000258:	00100713          	li	a4,1
8000025c:	3ae7a423          	sw	a4,936(a5)
80000260:	00100073          	ebreak
80000264:	0000006f          	j	80000264 <irqCallback+0x38>

80000268 <clock>:
80000268:	f00207b7          	lui	a5,0xf0020
8000026c:	0487a503          	lw	a0,72(a5) # f0020048 <_stack_start+0x7001e488>
80000270:	00008067          	ret

80000274 <memcpy1>:
80000274:	fe010113          	addi	sp,sp,-32
80000278:	00b547b3          	xor	a5,a0,a1
8000027c:	00812c23          	sw	s0,24(sp)
80000280:	01212823          	sw	s2,16(sp)
80000284:	01312623          	sw	s3,12(sp)
80000288:	00112e23          	sw	ra,28(sp)
8000028c:	00912a23          	sw	s1,20(sp)
80000290:	0037f793          	andi	a5,a5,3
80000294:	00050993          	mv	s3,a0
80000298:	00058413          	mv	s0,a1
8000029c:	00c50933          	add	s2,a0,a2
800002a0:	10079063          	bnez	a5,800003a0 <memcpy1+0x12c>
800002a4:	00300793          	li	a5,3
800002a8:	0ec7fc63          	bgeu	a5,a2,800003a0 <memcpy1+0x12c>
800002ac:	00357713          	andi	a4,a0,3
800002b0:	00050793          	mv	a5,a0
800002b4:	06071063          	bnez	a4,80000314 <memcpy1+0xa0>
800002b8:	ffc97713          	andi	a4,s2,-4
800002bc:	fe070693          	addi	a3,a4,-32
800002c0:	08d7e463          	bltu	a5,a3,80000348 <memcpy1+0xd4>
800002c4:	02e7f663          	bgeu	a5,a4,800002f0 <memcpy1+0x7c>
800002c8:	fff70493          	addi	s1,a4,-1
800002cc:	40f484b3          	sub	s1,s1,a5
800002d0:	ffc4f493          	andi	s1,s1,-4
800002d4:	00448493          	addi	s1,s1,4
800002d8:	00040593          	mv	a1,s0
800002dc:	00078513          	mv	a0,a5
800002e0:	00048613          	mv	a2,s1
800002e4:	519000ef          	jal	ra,80000ffc <memcpy>
800002e8:	009507b3          	add	a5,a0,s1
800002ec:	00940433          	add	s0,s0,s1
800002f0:	0b27ec63          	bltu	a5,s2,800003a8 <memcpy1+0x134>
800002f4:	01c12083          	lw	ra,28(sp)
800002f8:	01812403          	lw	s0,24(sp)
800002fc:	01412483          	lw	s1,20(sp)
80000300:	01012903          	lw	s2,16(sp)
80000304:	00098513          	mv	a0,s3
80000308:	00c12983          	lw	s3,12(sp)
8000030c:	02010113          	addi	sp,sp,32
80000310:	00008067          	ret
80000314:	00044683          	lbu	a3,0(s0)
80000318:	00178793          	addi	a5,a5,1
8000031c:	0037f713          	andi	a4,a5,3
80000320:	fed78fa3          	sb	a3,-1(a5)
80000324:	00140413          	addi	s0,s0,1
80000328:	f80708e3          	beqz	a4,800002b8 <memcpy1+0x44>
8000032c:	00044683          	lbu	a3,0(s0)
80000330:	00178793          	addi	a5,a5,1
80000334:	0037f713          	andi	a4,a5,3
80000338:	fed78fa3          	sb	a3,-1(a5)
8000033c:	00140413          	addi	s0,s0,1
80000340:	fc071ae3          	bnez	a4,80000314 <memcpy1+0xa0>
80000344:	f75ff06f          	j	800002b8 <memcpy1+0x44>
80000348:	00042f03          	lw	t5,0(s0)
8000034c:	00442e83          	lw	t4,4(s0)
80000350:	00842e03          	lw	t3,8(s0)
80000354:	00c42303          	lw	t1,12(s0)
80000358:	01042883          	lw	a7,16(s0)
8000035c:	01442803          	lw	a6,20(s0)
80000360:	01842503          	lw	a0,24(s0)
80000364:	01c42583          	lw	a1,28(s0)
80000368:	02042603          	lw	a2,32(s0)
8000036c:	02478793          	addi	a5,a5,36
80000370:	fde7ae23          	sw	t5,-36(a5)
80000374:	ffd7a023          	sw	t4,-32(a5)
80000378:	ffc7a223          	sw	t3,-28(a5)
8000037c:	fe67a423          	sw	t1,-24(a5)
80000380:	ff17a623          	sw	a7,-20(a5)
80000384:	ff07a823          	sw	a6,-16(a5)
80000388:	fea7aa23          	sw	a0,-12(a5)
8000038c:	feb7ac23          	sw	a1,-8(a5)
80000390:	fec7ae23          	sw	a2,-4(a5)
80000394:	02440413          	addi	s0,s0,36
80000398:	fad7e8e3          	bltu	a5,a3,80000348 <memcpy1+0xd4>
8000039c:	f29ff06f          	j	800002c4 <memcpy1+0x50>
800003a0:	00098793          	mv	a5,s3
800003a4:	f529f8e3          	bgeu	s3,s2,800002f4 <memcpy1+0x80>
800003a8:	00178713          	addi	a4,a5,1
800003ac:	00100613          	li	a2,1
800003b0:	02e97863          	bgeu	s2,a4,800003e0 <memcpy1+0x16c>
800003b4:	00040593          	mv	a1,s0
800003b8:	00078513          	mv	a0,a5
800003bc:	441000ef          	jal	ra,80000ffc <memcpy>
800003c0:	01c12083          	lw	ra,28(sp)
800003c4:	01812403          	lw	s0,24(sp)
800003c8:	01412483          	lw	s1,20(sp)
800003cc:	01012903          	lw	s2,16(sp)
800003d0:	00098513          	mv	a0,s3
800003d4:	00c12983          	lw	s3,12(sp)
800003d8:	02010113          	addi	sp,sp,32
800003dc:	00008067          	ret
800003e0:	40f90633          	sub	a2,s2,a5
800003e4:	00040593          	mv	a1,s0
800003e8:	00078513          	mv	a0,a5
800003ec:	411000ef          	jal	ra,80000ffc <memcpy>
800003f0:	fd1ff06f          	j	800003c0 <memcpy1+0x14c>

800003f4 <memcmp1>:
800003f4:	00b567b3          	or	a5,a0,a1
800003f8:	0037f793          	andi	a5,a5,3
800003fc:	02079e63          	bnez	a5,80000438 <memcmp1+0x44>
80000400:	ffc67813          	andi	a6,a2,-4
80000404:	01050833          	add	a6,a0,a6
80000408:	03057863          	bgeu	a0,a6,80000438 <memcmp1+0x44>
8000040c:	00050793          	mv	a5,a0
80000410:	0100006f          	j	80000420 <memcmp1+0x2c>
80000414:	00478793          	addi	a5,a5,4
80000418:	00458593          	addi	a1,a1,4
8000041c:	0107f863          	bgeu	a5,a6,8000042c <memcmp1+0x38>
80000420:	0007a683          	lw	a3,0(a5)
80000424:	0005a703          	lw	a4,0(a1)
80000428:	fee686e3          	beq	a3,a4,80000414 <memcmp1+0x20>
8000042c:	40a78533          	sub	a0,a5,a0
80000430:	40a60633          	sub	a2,a2,a0
80000434:	00078513          	mv	a0,a5
80000438:	00c58633          	add	a2,a1,a2
8000043c:	0140006f          	j	80000450 <memcmp1+0x5c>
80000440:	0005c703          	lbu	a4,0(a1)
80000444:	fff54783          	lbu	a5,-1(a0)
80000448:	00158593          	addi	a1,a1,1
8000044c:	00e79a63          	bne	a5,a4,80000460 <memcmp1+0x6c>
80000450:	00150513          	addi	a0,a0,1
80000454:	fec596e3          	bne	a1,a2,80000440 <memcmp1+0x4c>
80000458:	00000513          	li	a0,0
8000045c:	00008067          	ret
80000460:	40e78533          	sub	a0,a5,a4
80000464:	00008067          	ret

80000468 <KeyExpansion>:
80000468:	00350793          	addi	a5,a0,3
8000046c:	fd010113          	addi	sp,sp,-48
80000470:	40b787b3          	sub	a5,a5,a1
80000474:	02812623          	sw	s0,44(sp)
80000478:	02912423          	sw	s1,40(sp)
8000047c:	03212223          	sw	s2,36(sp)
80000480:	03312023          	sw	s3,32(sp)
80000484:	01412e23          	sw	s4,28(sp)
80000488:	01512c23          	sw	s5,24(sp)
8000048c:	01612a23          	sw	s6,20(sp)
80000490:	01712823          	sw	s7,16(sp)
80000494:	01812623          	sw	s8,12(sp)
80000498:	01912423          	sw	s9,8(sp)
8000049c:	01a12223          	sw	s10,4(sp)
800004a0:	0077b793          	sltiu	a5,a5,7
800004a4:	18079263          	bnez	a5,80000628 <KeyExpansion+0x1c0>
800004a8:	00b567b3          	or	a5,a0,a1
800004ac:	0037f793          	andi	a5,a5,3
800004b0:	16079c63          	bnez	a5,80000628 <KeyExpansion+0x1c0>
800004b4:	0005a783          	lw	a5,0(a1)
800004b8:	00f52023          	sw	a5,0(a0)
800004bc:	0045a783          	lw	a5,4(a1)
800004c0:	00f52223          	sw	a5,4(a0)
800004c4:	0085a783          	lw	a5,8(a1)
800004c8:	00f52423          	sw	a5,8(a0)
800004cc:	00c5a783          	lw	a5,12(a1)
800004d0:	00f52623          	sw	a5,12(a0)
800004d4:	80001637          	lui	a2,0x80001
800004d8:	00354a83          	lbu	s5,3(a0)
800004dc:	00754983          	lbu	s3,7(a0)
800004e0:	00b54903          	lbu	s2,11(a0)
800004e4:	00f54e03          	lbu	t3,15(a0)
800004e8:	00254b03          	lbu	s6,2(a0)
800004ec:	00654483          	lbu	s1,6(a0)
800004f0:	00a54403          	lbu	s0,10(a0)
800004f4:	00e54303          	lbu	t1,14(a0)
800004f8:	00154383          	lbu	t2,1(a0)
800004fc:	00554283          	lbu	t0,5(a0)
80000500:	00954f83          	lbu	t6,9(a0)
80000504:	00d54883          	lbu	a7,13(a0)
80000508:	00054b83          	lbu	s7,0(a0)
8000050c:	00454f03          	lbu	t5,4(a0)
80000510:	00854e83          	lbu	t4,8(a0)
80000514:	00c54803          	lbu	a6,12(a0)
80000518:	00400593          	li	a1,4
8000051c:	01050513          	addi	a0,a0,16
80000520:	19c60613          	addi	a2,a2,412 # 8000119c <_stack_start+0xfffff5dc>
80000524:	02c00a13          	li	s4,44
80000528:	0980006f          	j	800005c0 <KeyExpansion+0x158>
8000052c:	100d4783          	lbu	a5,256(s10)
80000530:	000ccc83          	lbu	s9,0(s9)
80000534:	000c4c03          	lbu	s8,0(s8)
80000538:	0006c683          	lbu	a3,0(a3)
8000053c:	00074703          	lbu	a4,0(a4)
80000540:	0197c7b3          	xor	a5,a5,s9
80000544:	0177c7b3          	xor	a5,a5,s7
80000548:	007c4c33          	xor	s8,s8,t2
8000054c:	00db46b3          	xor	a3,s6,a3
80000550:	01574733          	xor	a4,a4,s5
80000554:	0ff7f793          	zext.b	a5,a5
80000558:	0ffc7c13          	zext.b	s8,s8
8000055c:	0ff6f693          	zext.b	a3,a3
80000560:	0ff77713          	zext.b	a4,a4
80000564:	00f50023          	sb	a5,0(a0)
80000568:	018500a3          	sb	s8,1(a0)
8000056c:	00d50123          	sb	a3,2(a0)
80000570:	00e501a3          	sb	a4,3(a0)
80000574:	00158593          	addi	a1,a1,1
80000578:	00098a93          	mv	s5,s3
8000057c:	00048b13          	mv	s6,s1
80000580:	00090993          	mv	s3,s2
80000584:	00040493          	mv	s1,s0
80000588:	00028393          	mv	t2,t0
8000058c:	000f0b93          	mv	s7,t5
80000590:	000f8293          	mv	t0,t6
80000594:	000e8f13          	mv	t5,t4
80000598:	000e0913          	mv	s2,t3
8000059c:	00030413          	mv	s0,t1
800005a0:	00088f93          	mv	t6,a7
800005a4:	00080e93          	mv	t4,a6
800005a8:	00450513          	addi	a0,a0,4
800005ac:	05458463          	beq	a1,s4,800005f4 <KeyExpansion+0x18c>
800005b0:	00078813          	mv	a6,a5
800005b4:	000c0893          	mv	a7,s8
800005b8:	00068313          	mv	t1,a3
800005bc:	00070e13          	mv	t3,a4
800005c0:	0025d793          	srli	a5,a1,0x2
800005c4:	00f60d33          	add	s10,a2,a5
800005c8:	0035f793          	andi	a5,a1,3
800005cc:	01160cb3          	add	s9,a2,a7
800005d0:	00660c33          	add	s8,a2,t1
800005d4:	01c606b3          	add	a3,a2,t3
800005d8:	01060733          	add	a4,a2,a6
800005dc:	f40788e3          	beqz	a5,8000052c <KeyExpansion+0xc4>
800005e0:	000e0713          	mv	a4,t3
800005e4:	00030693          	mv	a3,t1
800005e8:	00088c13          	mv	s8,a7
800005ec:	00080793          	mv	a5,a6
800005f0:	f55ff06f          	j	80000544 <KeyExpansion+0xdc>
800005f4:	02c12403          	lw	s0,44(sp)
800005f8:	02812483          	lw	s1,40(sp)
800005fc:	02412903          	lw	s2,36(sp)
80000600:	02012983          	lw	s3,32(sp)
80000604:	01c12a03          	lw	s4,28(sp)
80000608:	01812a83          	lw	s5,24(sp)
8000060c:	01412b03          	lw	s6,20(sp)
80000610:	01012b83          	lw	s7,16(sp)
80000614:	00c12c03          	lw	s8,12(sp)
80000618:	00812c83          	lw	s9,8(sp)
8000061c:	00412d03          	lw	s10,4(sp)
80000620:	03010113          	addi	sp,sp,48
80000624:	00008067          	ret
80000628:	0005c783          	lbu	a5,0(a1)
8000062c:	00f50023          	sb	a5,0(a0)
80000630:	0015c783          	lbu	a5,1(a1)
80000634:	00f500a3          	sb	a5,1(a0)
80000638:	0025c783          	lbu	a5,2(a1)
8000063c:	00f50123          	sb	a5,2(a0)
80000640:	0035c783          	lbu	a5,3(a1)
80000644:	00f501a3          	sb	a5,3(a0)
80000648:	0045c783          	lbu	a5,4(a1)
8000064c:	00f50223          	sb	a5,4(a0)
80000650:	0055c783          	lbu	a5,5(a1)
80000654:	00f502a3          	sb	a5,5(a0)
80000658:	0065c783          	lbu	a5,6(a1)
8000065c:	00f50323          	sb	a5,6(a0)
80000660:	0075c783          	lbu	a5,7(a1)
80000664:	00f503a3          	sb	a5,7(a0)
80000668:	0085c783          	lbu	a5,8(a1)
8000066c:	00f50423          	sb	a5,8(a0)
80000670:	0095c783          	lbu	a5,9(a1)
80000674:	00f504a3          	sb	a5,9(a0)
80000678:	00a5c783          	lbu	a5,10(a1)
8000067c:	00f50523          	sb	a5,10(a0)
80000680:	00b5c783          	lbu	a5,11(a1)
80000684:	00f505a3          	sb	a5,11(a0)
80000688:	00c5c783          	lbu	a5,12(a1)
8000068c:	00f50623          	sb	a5,12(a0)
80000690:	00d5c783          	lbu	a5,13(a1)
80000694:	00f506a3          	sb	a5,13(a0)
80000698:	00e5c783          	lbu	a5,14(a1)
8000069c:	00f50723          	sb	a5,14(a0)
800006a0:	00f5c783          	lbu	a5,15(a1)
800006a4:	00f507a3          	sb	a5,15(a0)
800006a8:	e2dff06f          	j	800004d4 <KeyExpansion+0x6c>

800006ac <AddRoundKey>:
800006ac:	00451513          	slli	a0,a0,0x4
800006b0:	0ff57513          	zext.b	a0,a0
800006b4:	00a60633          	add	a2,a2,a0
800006b8:	00064783          	lbu	a5,0(a2)
800006bc:	0005c703          	lbu	a4,0(a1)
800006c0:	0045c503          	lbu	a0,4(a1)
800006c4:	0085c683          	lbu	a3,8(a1)
800006c8:	00e7c7b3          	xor	a5,a5,a4
800006cc:	00f58023          	sb	a5,0(a1)
800006d0:	00464783          	lbu	a5,4(a2)
800006d4:	00c5c703          	lbu	a4,12(a1)
800006d8:	0015ce03          	lbu	t3,1(a1)
800006dc:	00a7c7b3          	xor	a5,a5,a0
800006e0:	00f58223          	sb	a5,4(a1)
800006e4:	00864783          	lbu	a5,8(a2)
800006e8:	0095c303          	lbu	t1,9(a1)
800006ec:	00d5c883          	lbu	a7,13(a1)
800006f0:	00d7c7b3          	xor	a5,a5,a3
800006f4:	00f58423          	sb	a5,8(a1)
800006f8:	00c64783          	lbu	a5,12(a2)
800006fc:	0025c803          	lbu	a6,2(a1)
80000700:	0065c503          	lbu	a0,6(a1)
80000704:	00e7c7b3          	xor	a5,a5,a4
80000708:	00f58623          	sb	a5,12(a1)
8000070c:	00164783          	lbu	a5,1(a2)
80000710:	00a5c683          	lbu	a3,10(a1)
80000714:	00e5c703          	lbu	a4,14(a1)
80000718:	01c7c7b3          	xor	a5,a5,t3
8000071c:	00f580a3          	sb	a5,1(a1)
80000720:	00964783          	lbu	a5,9(a2)
80000724:	0067c7b3          	xor	a5,a5,t1
80000728:	00f584a3          	sb	a5,9(a1)
8000072c:	00d64783          	lbu	a5,13(a2)
80000730:	0117c7b3          	xor	a5,a5,a7
80000734:	00f586a3          	sb	a5,13(a1)
80000738:	00264783          	lbu	a5,2(a2)
8000073c:	0107c7b3          	xor	a5,a5,a6
80000740:	00f58123          	sb	a5,2(a1)
80000744:	00664783          	lbu	a5,6(a2)
80000748:	00a7c7b3          	xor	a5,a5,a0
8000074c:	00f58323          	sb	a5,6(a1)
80000750:	00a64783          	lbu	a5,10(a2)
80000754:	00d7c7b3          	xor	a5,a5,a3
80000758:	00f58523          	sb	a5,10(a1)
8000075c:	00e64783          	lbu	a5,14(a2)
80000760:	00e7c7b3          	xor	a5,a5,a4
80000764:	00f58723          	sb	a5,14(a1)
80000768:	00364783          	lbu	a5,3(a2)
8000076c:	0035c703          	lbu	a4,3(a1)
80000770:	0075c803          	lbu	a6,7(a1)
80000774:	00b5c503          	lbu	a0,11(a1)
80000778:	00e7c7b3          	xor	a5,a5,a4
8000077c:	00f581a3          	sb	a5,3(a1)
80000780:	00764783          	lbu	a5,7(a2)
80000784:	00f5c683          	lbu	a3,15(a1)
80000788:	0055c703          	lbu	a4,5(a1)
8000078c:	0107c7b3          	xor	a5,a5,a6
80000790:	00f583a3          	sb	a5,7(a1)
80000794:	00b64783          	lbu	a5,11(a2)
80000798:	00a7c7b3          	xor	a5,a5,a0
8000079c:	00f585a3          	sb	a5,11(a1)
800007a0:	00f64783          	lbu	a5,15(a2)
800007a4:	00d7c7b3          	xor	a5,a5,a3
800007a8:	00f587a3          	sb	a5,15(a1)
800007ac:	00564783          	lbu	a5,5(a2)
800007b0:	00e7c7b3          	xor	a5,a5,a4
800007b4:	00f582a3          	sb	a5,5(a1)
800007b8:	00008067          	ret

800007bc <SubBytes>:
800007bc:	00054f83          	lbu	t6,0(a0)
800007c0:	00454f03          	lbu	t5,4(a0)
800007c4:	00854e83          	lbu	t4,8(a0)
800007c8:	00c54e03          	lbu	t3,12(a0)
800007cc:	00154303          	lbu	t1,1(a0)
800007d0:	00554883          	lbu	a7,5(a0)
800007d4:	00954803          	lbu	a6,9(a0)
800007d8:	00d54583          	lbu	a1,13(a0)
800007dc:	00254603          	lbu	a2,2(a0)
800007e0:	00654683          	lbu	a3,6(a0)
800007e4:	00a54703          	lbu	a4,10(a0)
800007e8:	800017b7          	lui	a5,0x80001
800007ec:	19c78793          	addi	a5,a5,412 # 8000119c <_stack_start+0xfffff5dc>
800007f0:	01f78fb3          	add	t6,a5,t6
800007f4:	01e78f33          	add	t5,a5,t5
800007f8:	01d78eb3          	add	t4,a5,t4
800007fc:	01c78e33          	add	t3,a5,t3
80000800:	00678333          	add	t1,a5,t1
80000804:	011788b3          	add	a7,a5,a7
80000808:	01078833          	add	a6,a5,a6
8000080c:	00b785b3          	add	a1,a5,a1
80000810:	00c78633          	add	a2,a5,a2
80000814:	00d786b3          	add	a3,a5,a3
80000818:	00084803          	lbu	a6,0(a6)
8000081c:	0005c583          	lbu	a1,0(a1)
80000820:	00064603          	lbu	a2,0(a2)
80000824:	0006c683          	lbu	a3,0(a3)
80000828:	000fcf83          	lbu	t6,0(t6)
8000082c:	000f4f03          	lbu	t5,0(t5)
80000830:	000ece83          	lbu	t4,0(t4)
80000834:	000e4e03          	lbu	t3,0(t3)
80000838:	00034303          	lbu	t1,0(t1)
8000083c:	0008c883          	lbu	a7,0(a7)
80000840:	00e78733          	add	a4,a5,a4
80000844:	00074703          	lbu	a4,0(a4)
80000848:	010504a3          	sb	a6,9(a0)
8000084c:	00b506a3          	sb	a1,13(a0)
80000850:	00c50123          	sb	a2,2(a0)
80000854:	00d50323          	sb	a3,6(a0)
80000858:	01f50023          	sb	t6,0(a0)
8000085c:	01e50223          	sb	t5,4(a0)
80000860:	01d50423          	sb	t4,8(a0)
80000864:	01c50623          	sb	t3,12(a0)
80000868:	006500a3          	sb	t1,1(a0)
8000086c:	011502a3          	sb	a7,5(a0)
80000870:	00e50523          	sb	a4,10(a0)
80000874:	00e54583          	lbu	a1,14(a0)
80000878:	00354603          	lbu	a2,3(a0)
8000087c:	00754683          	lbu	a3,7(a0)
80000880:	00b54703          	lbu	a4,11(a0)
80000884:	00f54803          	lbu	a6,15(a0)
80000888:	00b785b3          	add	a1,a5,a1
8000088c:	00c78633          	add	a2,a5,a2
80000890:	00d786b3          	add	a3,a5,a3
80000894:	00e78733          	add	a4,a5,a4
80000898:	010787b3          	add	a5,a5,a6
8000089c:	0005c583          	lbu	a1,0(a1)
800008a0:	00064603          	lbu	a2,0(a2)
800008a4:	0006c683          	lbu	a3,0(a3)
800008a8:	00074703          	lbu	a4,0(a4)
800008ac:	0007c783          	lbu	a5,0(a5)
800008b0:	00b50723          	sb	a1,14(a0)
800008b4:	00c501a3          	sb	a2,3(a0)
800008b8:	00d503a3          	sb	a3,7(a0)
800008bc:	00e505a3          	sb	a4,11(a0)
800008c0:	00f507a3          	sb	a5,15(a0)
800008c4:	00008067          	ret

800008c8 <ShiftRows>:
800008c8:	00154e03          	lbu	t3,1(a0)
800008cc:	00554f83          	lbu	t6,5(a0)
800008d0:	00954f03          	lbu	t5,9(a0)
800008d4:	00d54e83          	lbu	t4,13(a0)
800008d8:	00254883          	lbu	a7,2(a0)
800008dc:	00a54303          	lbu	t1,10(a0)
800008e0:	00654583          	lbu	a1,6(a0)
800008e4:	00e54803          	lbu	a6,14(a0)
800008e8:	00354783          	lbu	a5,3(a0)
800008ec:	00f54603          	lbu	a2,15(a0)
800008f0:	00b54683          	lbu	a3,11(a0)
800008f4:	00754703          	lbu	a4,7(a0)
800008f8:	01f500a3          	sb	t6,1(a0)
800008fc:	01e502a3          	sb	t5,5(a0)
80000900:	01d504a3          	sb	t4,9(a0)
80000904:	01c506a3          	sb	t3,13(a0)
80000908:	00650123          	sb	t1,2(a0)
8000090c:	01150523          	sb	a7,10(a0)
80000910:	01050323          	sb	a6,6(a0)
80000914:	00b50723          	sb	a1,14(a0)
80000918:	00c501a3          	sb	a2,3(a0)
8000091c:	00d507a3          	sb	a3,15(a0)
80000920:	00e505a3          	sb	a4,11(a0)
80000924:	00f503a3          	sb	a5,7(a0)
80000928:	00008067          	ret

8000092c <xtime>:
8000092c:	00755713          	srli	a4,a0,0x7
80000930:	00371793          	slli	a5,a4,0x3
80000934:	40e787b3          	sub	a5,a5,a4
80000938:	00279793          	slli	a5,a5,0x2
8000093c:	40e787b3          	sub	a5,a5,a4
80000940:	00151513          	slli	a0,a0,0x1
80000944:	00a7c533          	xor	a0,a5,a0
80000948:	0ff57513          	zext.b	a0,a0
8000094c:	00008067          	ret

80000950 <MixColumns>:
80000950:	fe010113          	addi	sp,sp,-32
80000954:	00112e23          	sw	ra,28(sp)
80000958:	00812c23          	sw	s0,24(sp)
8000095c:	00912a23          	sw	s1,20(sp)
80000960:	01612023          	sw	s6,0(sp)
80000964:	01212823          	sw	s2,16(sp)
80000968:	01312623          	sw	s3,12(sp)
8000096c:	01412423          	sw	s4,8(sp)
80000970:	01512223          	sw	s5,4(sp)
80000974:	00354a83          	lbu	s5,3(a0)
80000978:	00054a03          	lbu	s4,0(a0)
8000097c:	00254903          	lbu	s2,2(a0)
80000980:	00154983          	lbu	s3,1(a0)
80000984:	00050413          	mv	s0,a0
80000988:	012acb33          	xor	s6,s5,s2
8000098c:	0149c533          	xor	a0,s3,s4
80000990:	00ab44b3          	xor	s1,s6,a0
80000994:	f99ff0ef          	jal	ra,8000092c <xtime>
80000998:	0144c7b3          	xor	a5,s1,s4
8000099c:	00f54533          	xor	a0,a0,a5
800009a0:	00a40023          	sb	a0,0(s0)
800009a4:	01394533          	xor	a0,s2,s3
800009a8:	f85ff0ef          	jal	ra,8000092c <xtime>
800009ac:	0134c9b3          	xor	s3,s1,s3
800009b0:	01354533          	xor	a0,a0,s3
800009b4:	00a400a3          	sb	a0,1(s0)
800009b8:	000b0513          	mv	a0,s6
800009bc:	f71ff0ef          	jal	ra,8000092c <xtime>
800009c0:	0124c933          	xor	s2,s1,s2
800009c4:	01254533          	xor	a0,a0,s2
800009c8:	00a40123          	sb	a0,2(s0)
800009cc:	014ac533          	xor	a0,s5,s4
800009d0:	f5dff0ef          	jal	ra,8000092c <xtime>
800009d4:	00444b03          	lbu	s6,4(s0)
800009d8:	00544a03          	lbu	s4,5(s0)
800009dc:	00644903          	lbu	s2,6(s0)
800009e0:	00744983          	lbu	s3,7(s0)
800009e4:	0154c4b3          	xor	s1,s1,s5
800009e8:	009547b3          	xor	a5,a0,s1
800009ec:	00f401a3          	sb	a5,3(s0)
800009f0:	013944b3          	xor	s1,s2,s3
800009f4:	014b4533          	xor	a0,s6,s4
800009f8:	00954ab3          	xor	s5,a0,s1
800009fc:	f31ff0ef          	jal	ra,8000092c <xtime>
80000a00:	015b47b3          	xor	a5,s6,s5
80000a04:	00f54533          	xor	a0,a0,a5
80000a08:	00a40223          	sb	a0,4(s0)
80000a0c:	012a4533          	xor	a0,s4,s2
80000a10:	f1dff0ef          	jal	ra,8000092c <xtime>
80000a14:	015a4a33          	xor	s4,s4,s5
80000a18:	01454533          	xor	a0,a0,s4
80000a1c:	00a402a3          	sb	a0,5(s0)
80000a20:	00048513          	mv	a0,s1
80000a24:	f09ff0ef          	jal	ra,8000092c <xtime>
80000a28:	01594933          	xor	s2,s2,s5
80000a2c:	01254533          	xor	a0,a0,s2
80000a30:	00a40323          	sb	a0,6(s0)
80000a34:	013b4533          	xor	a0,s6,s3
80000a38:	ef5ff0ef          	jal	ra,8000092c <xtime>
80000a3c:	00844b03          	lbu	s6,8(s0)
80000a40:	00944903          	lbu	s2,9(s0)
80000a44:	00a44483          	lbu	s1,10(s0)
80000a48:	00b44a03          	lbu	s4,11(s0)
80000a4c:	0159c9b3          	xor	s3,s3,s5
80000a50:	013547b3          	xor	a5,a0,s3
80000a54:	00f403a3          	sb	a5,7(s0)
80000a58:	0144c9b3          	xor	s3,s1,s4
80000a5c:	012b4533          	xor	a0,s6,s2
80000a60:	01354ab3          	xor	s5,a0,s3
80000a64:	ec9ff0ef          	jal	ra,8000092c <xtime>
80000a68:	015b47b3          	xor	a5,s6,s5
80000a6c:	00f54533          	xor	a0,a0,a5
80000a70:	00a40423          	sb	a0,8(s0)
80000a74:	00994533          	xor	a0,s2,s1
80000a78:	eb5ff0ef          	jal	ra,8000092c <xtime>
80000a7c:	01594933          	xor	s2,s2,s5
80000a80:	01254533          	xor	a0,a0,s2
80000a84:	00a404a3          	sb	a0,9(s0)
80000a88:	00098513          	mv	a0,s3
80000a8c:	ea1ff0ef          	jal	ra,8000092c <xtime>
80000a90:	0154c4b3          	xor	s1,s1,s5
80000a94:	00954533          	xor	a0,a0,s1
80000a98:	00a40523          	sb	a0,10(s0)
80000a9c:	014b4533          	xor	a0,s6,s4
80000aa0:	e8dff0ef          	jal	ra,8000092c <xtime>
80000aa4:	00c44b03          	lbu	s6,12(s0)
80000aa8:	00d44983          	lbu	s3,13(s0)
80000aac:	00e44903          	lbu	s2,14(s0)
80000ab0:	00f44483          	lbu	s1,15(s0)
80000ab4:	015a4a33          	xor	s4,s4,s5
80000ab8:	014547b3          	xor	a5,a0,s4
80000abc:	00994ab3          	xor	s5,s2,s1
80000ac0:	0169c533          	xor	a0,s3,s6
80000ac4:	00f405a3          	sb	a5,11(s0)
80000ac8:	01554a33          	xor	s4,a0,s5
80000acc:	e61ff0ef          	jal	ra,8000092c <xtime>
80000ad0:	014b47b3          	xor	a5,s6,s4
80000ad4:	00f54533          	xor	a0,a0,a5
80000ad8:	00a40623          	sb	a0,12(s0)
80000adc:	0129c533          	xor	a0,s3,s2
80000ae0:	e4dff0ef          	jal	ra,8000092c <xtime>
80000ae4:	0149c9b3          	xor	s3,s3,s4
80000ae8:	01354533          	xor	a0,a0,s3
80000aec:	00a406a3          	sb	a0,13(s0)
80000af0:	000a8513          	mv	a0,s5
80000af4:	e39ff0ef          	jal	ra,8000092c <xtime>
80000af8:	01494933          	xor	s2,s2,s4
80000afc:	01254533          	xor	a0,a0,s2
80000b00:	00a40723          	sb	a0,14(s0)
80000b04:	0164c533          	xor	a0,s1,s6
80000b08:	e25ff0ef          	jal	ra,8000092c <xtime>
80000b0c:	0144c4b3          	xor	s1,s1,s4
80000b10:	00954533          	xor	a0,a0,s1
80000b14:	00a407a3          	sb	a0,15(s0)
80000b18:	01c12083          	lw	ra,28(sp)
80000b1c:	01812403          	lw	s0,24(sp)
80000b20:	01412483          	lw	s1,20(sp)
80000b24:	01012903          	lw	s2,16(sp)
80000b28:	00c12983          	lw	s3,12(sp)
80000b2c:	00812a03          	lw	s4,8(sp)
80000b30:	00412a83          	lw	s5,4(sp)
80000b34:	00012b03          	lw	s6,0(sp)
80000b38:	02010113          	addi	sp,sp,32
80000b3c:	00008067          	ret

80000b40 <InvMixColumns>:
80000b40:	fa010113          	addi	sp,sp,-96
80000b44:	01050793          	addi	a5,a0,16
80000b48:	05612023          	sw	s6,64(sp)
80000b4c:	04112e23          	sw	ra,92(sp)
80000b50:	04812c23          	sw	s0,88(sp)
80000b54:	04912a23          	sw	s1,84(sp)
80000b58:	05212823          	sw	s2,80(sp)
80000b5c:	05312623          	sw	s3,76(sp)
80000b60:	05412423          	sw	s4,72(sp)
80000b64:	05512223          	sw	s5,68(sp)
80000b68:	03712e23          	sw	s7,60(sp)
80000b6c:	03812c23          	sw	s8,56(sp)
80000b70:	03912a23          	sw	s9,52(sp)
80000b74:	03a12823          	sw	s10,48(sp)
80000b78:	03b12623          	sw	s11,44(sp)
80000b7c:	00050b13          	mv	s6,a0
80000b80:	00f12e23          	sw	a5,28(sp)
80000b84:	000b4d03          	lbu	s10,0(s6)
80000b88:	001b4c83          	lbu	s9,1(s6)
80000b8c:	002b4b83          	lbu	s7,2(s6)
80000b90:	000d0513          	mv	a0,s10
80000b94:	d99ff0ef          	jal	ra,8000092c <xtime>
80000b98:	00a12c23          	sw	a0,24(sp)
80000b9c:	d91ff0ef          	jal	ra,8000092c <xtime>
80000ba0:	00050993          	mv	s3,a0
80000ba4:	d89ff0ef          	jal	ra,8000092c <xtime>
80000ba8:	00050713          	mv	a4,a0
80000bac:	000c8513          	mv	a0,s9
80000bb0:	00e12a23          	sw	a4,20(sp)
80000bb4:	d79ff0ef          	jal	ra,8000092c <xtime>
80000bb8:	00a12823          	sw	a0,16(sp)
80000bbc:	d71ff0ef          	jal	ra,8000092c <xtime>
80000bc0:	00050a93          	mv	s5,a0
80000bc4:	d69ff0ef          	jal	ra,8000092c <xtime>
80000bc8:	00050793          	mv	a5,a0
80000bcc:	000b8513          	mv	a0,s7
80000bd0:	00f12623          	sw	a5,12(sp)
80000bd4:	003b4c03          	lbu	s8,3(s6)
80000bd8:	d55ff0ef          	jal	ra,8000092c <xtime>
80000bdc:	00050413          	mv	s0,a0
80000be0:	d4dff0ef          	jal	ra,8000092c <xtime>
80000be4:	00050913          	mv	s2,a0
80000be8:	d45ff0ef          	jal	ra,8000092c <xtime>
80000bec:	00050493          	mv	s1,a0
80000bf0:	000c0513          	mv	a0,s8
80000bf4:	d39ff0ef          	jal	ra,8000092c <xtime>
80000bf8:	00050a13          	mv	s4,a0
80000bfc:	d31ff0ef          	jal	ra,8000092c <xtime>
80000c00:	00050d93          	mv	s11,a0
80000c04:	d29ff0ef          	jal	ra,8000092c <xtime>
80000c08:	01412703          	lw	a4,20(sp)
80000c0c:	01812803          	lw	a6,24(sp)
80000c10:	01012583          	lw	a1,16(sp)
80000c14:	00c12783          	lw	a5,12(sp)
80000c18:	01384333          	xor	t1,a6,s3
80000c1c:	00b748b3          	xor	a7,a4,a1
80000c20:	00e9c6b3          	xor	a3,s3,a4
80000c24:	00e84833          	xor	a6,a6,a4
80000c28:	011ac8b3          	xor	a7,s5,a7
80000c2c:	00674733          	xor	a4,a4,t1
80000c30:	00d7c6b3          	xor	a3,a5,a3
80000c34:	00e5c5b3          	xor	a1,a1,a4
80000c38:	0117c733          	xor	a4,a5,a7
80000c3c:	00d446b3          	xor	a3,s0,a3
80000c40:	010acab3          	xor	s5,s5,a6
80000c44:	00e44433          	xor	s0,s0,a4
80000c48:	0157cab3          	xor	s5,a5,s5
80000c4c:	0084c433          	xor	s0,s1,s0
80000c50:	00b7c7b3          	xor	a5,a5,a1
80000c54:	00f94633          	xor	a2,s2,a5
80000c58:	00d946b3          	xor	a3,s2,a3
80000c5c:	008dc7b3          	xor	a5,s11,s0
80000c60:	0154cab3          	xor	s5,s1,s5
80000c64:	015a4ab3          	xor	s5,s4,s5
80000c68:	00f547b3          	xor	a5,a0,a5
80000c6c:	00d4c6b3          	xor	a3,s1,a3
80000c70:	00fd47b3          	xor	a5,s10,a5
80000c74:	00c4c733          	xor	a4,s1,a2
80000c78:	00da4a33          	xor	s4,s4,a3
80000c7c:	015dcdb3          	xor	s11,s11,s5
80000c80:	00e54733          	xor	a4,a0,a4
80000c84:	01454a33          	xor	s4,a0,s4
80000c88:	00fbc7b3          	xor	a5,s7,a5
80000c8c:	01b54533          	xor	a0,a0,s11
80000c90:	00fc47b3          	xor	a5,s8,a5
80000c94:	00ecc733          	xor	a4,s9,a4
80000c98:	014d4a33          	xor	s4,s10,s4
80000c9c:	00ad4d33          	xor	s10,s10,a0
80000ca0:	00ebc733          	xor	a4,s7,a4
80000ca4:	014cca33          	xor	s4,s9,s4
80000ca8:	00fb00a3          	sb	a5,1(s6)
80000cac:	01acccb3          	xor	s9,s9,s10
80000cb0:	01c12783          	lw	a5,28(sp)
80000cb4:	00ec4733          	xor	a4,s8,a4
80000cb8:	019bcbb3          	xor	s7,s7,s9
80000cbc:	014c4c33          	xor	s8,s8,s4
80000cc0:	00eb0023          	sb	a4,0(s6)
80000cc4:	018b0123          	sb	s8,2(s6)
80000cc8:	017b01a3          	sb	s7,3(s6)
80000ccc:	004b0b13          	addi	s6,s6,4
80000cd0:	eb679ae3          	bne	a5,s6,80000b84 <InvMixColumns+0x44>
80000cd4:	05c12083          	lw	ra,92(sp)
80000cd8:	05812403          	lw	s0,88(sp)
80000cdc:	05412483          	lw	s1,84(sp)
80000ce0:	05012903          	lw	s2,80(sp)
80000ce4:	04c12983          	lw	s3,76(sp)
80000ce8:	04812a03          	lw	s4,72(sp)
80000cec:	04412a83          	lw	s5,68(sp)
80000cf0:	04012b03          	lw	s6,64(sp)
80000cf4:	03c12b83          	lw	s7,60(sp)
80000cf8:	03812c03          	lw	s8,56(sp)
80000cfc:	03412c83          	lw	s9,52(sp)
80000d00:	03012d03          	lw	s10,48(sp)
80000d04:	02c12d83          	lw	s11,44(sp)
80000d08:	06010113          	addi	sp,sp,96
80000d0c:	00008067          	ret

80000d10 <InvSubBytes>:
80000d10:	00054f83          	lbu	t6,0(a0)
80000d14:	00454f03          	lbu	t5,4(a0)
80000d18:	00854e83          	lbu	t4,8(a0)
80000d1c:	00c54e03          	lbu	t3,12(a0)
80000d20:	00154303          	lbu	t1,1(a0)
80000d24:	00554883          	lbu	a7,5(a0)
80000d28:	00954803          	lbu	a6,9(a0)
80000d2c:	00d54583          	lbu	a1,13(a0)
80000d30:	00254603          	lbu	a2,2(a0)
80000d34:	00654683          	lbu	a3,6(a0)
80000d38:	00a54703          	lbu	a4,10(a0)
80000d3c:	800017b7          	lui	a5,0x80001
80000d40:	19c78793          	addi	a5,a5,412 # 8000119c <_stack_start+0xfffff5dc>
80000d44:	01f78fb3          	add	t6,a5,t6
80000d48:	01e78f33          	add	t5,a5,t5
80000d4c:	01d78eb3          	add	t4,a5,t4
80000d50:	01c78e33          	add	t3,a5,t3
80000d54:	00678333          	add	t1,a5,t1
80000d58:	011788b3          	add	a7,a5,a7
80000d5c:	01078833          	add	a6,a5,a6
80000d60:	00b785b3          	add	a1,a5,a1
80000d64:	00c78633          	add	a2,a5,a2
80000d68:	00d786b3          	add	a3,a5,a3
80000d6c:	10c84803          	lbu	a6,268(a6)
80000d70:	10c5c583          	lbu	a1,268(a1)
80000d74:	10c64603          	lbu	a2,268(a2)
80000d78:	10c6c683          	lbu	a3,268(a3)
80000d7c:	10cfcf83          	lbu	t6,268(t6)
80000d80:	10cf4f03          	lbu	t5,268(t5)
80000d84:	10cece83          	lbu	t4,268(t4)
80000d88:	10ce4e03          	lbu	t3,268(t3)
80000d8c:	10c34303          	lbu	t1,268(t1)
80000d90:	10c8c883          	lbu	a7,268(a7)
80000d94:	00e78733          	add	a4,a5,a4
80000d98:	10c74703          	lbu	a4,268(a4)
80000d9c:	010504a3          	sb	a6,9(a0)
80000da0:	00b506a3          	sb	a1,13(a0)
80000da4:	00c50123          	sb	a2,2(a0)
80000da8:	00d50323          	sb	a3,6(a0)
80000dac:	01f50023          	sb	t6,0(a0)
80000db0:	01e50223          	sb	t5,4(a0)
80000db4:	01d50423          	sb	t4,8(a0)
80000db8:	01c50623          	sb	t3,12(a0)
80000dbc:	006500a3          	sb	t1,1(a0)
80000dc0:	011502a3          	sb	a7,5(a0)
80000dc4:	00e50523          	sb	a4,10(a0)
80000dc8:	00e54583          	lbu	a1,14(a0)
80000dcc:	00354603          	lbu	a2,3(a0)
80000dd0:	00754683          	lbu	a3,7(a0)
80000dd4:	00b54703          	lbu	a4,11(a0)
80000dd8:	00f54803          	lbu	a6,15(a0)
80000ddc:	00b785b3          	add	a1,a5,a1
80000de0:	00c78633          	add	a2,a5,a2
80000de4:	00d786b3          	add	a3,a5,a3
80000de8:	00e78733          	add	a4,a5,a4
80000dec:	010787b3          	add	a5,a5,a6
80000df0:	10c5c583          	lbu	a1,268(a1)
80000df4:	10c64603          	lbu	a2,268(a2)
80000df8:	10c6c683          	lbu	a3,268(a3)
80000dfc:	10c74703          	lbu	a4,268(a4)
80000e00:	10c7c783          	lbu	a5,268(a5)
80000e04:	00b50723          	sb	a1,14(a0)
80000e08:	00c501a3          	sb	a2,3(a0)
80000e0c:	00d503a3          	sb	a3,7(a0)
80000e10:	00e505a3          	sb	a4,11(a0)
80000e14:	00f507a3          	sb	a5,15(a0)
80000e18:	00008067          	ret

80000e1c <InvShiftRows>:
80000e1c:	00d54e03          	lbu	t3,13(a0)
80000e20:	00954f83          	lbu	t6,9(a0)
80000e24:	00554f03          	lbu	t5,5(a0)
80000e28:	00154e83          	lbu	t4,1(a0)
80000e2c:	00254883          	lbu	a7,2(a0)
80000e30:	00a54303          	lbu	t1,10(a0)
80000e34:	00654583          	lbu	a1,6(a0)
80000e38:	00e54803          	lbu	a6,14(a0)
80000e3c:	00354783          	lbu	a5,3(a0)
80000e40:	00754603          	lbu	a2,7(a0)
80000e44:	00b54683          	lbu	a3,11(a0)
80000e48:	00f54703          	lbu	a4,15(a0)
80000e4c:	01f506a3          	sb	t6,13(a0)
80000e50:	01e504a3          	sb	t5,9(a0)
80000e54:	01d502a3          	sb	t4,5(a0)
80000e58:	01c500a3          	sb	t3,1(a0)
80000e5c:	00650123          	sb	t1,2(a0)
80000e60:	01150523          	sb	a7,10(a0)
80000e64:	01050323          	sb	a6,6(a0)
80000e68:	00b50723          	sb	a1,14(a0)
80000e6c:	00c501a3          	sb	a2,3(a0)
80000e70:	00d503a3          	sb	a3,7(a0)
80000e74:	00e505a3          	sb	a4,11(a0)
80000e78:	00f507a3          	sb	a5,15(a0)
80000e7c:	00008067          	ret

80000e80 <Cipher>:
80000e80:	fe010113          	addi	sp,sp,-32
80000e84:	000107b7          	lui	a5,0x10
80000e88:	00812c23          	sw	s0,24(sp)
80000e8c:	00912a23          	sw	s1,20(sp)
80000e90:	01212823          	sw	s2,16(sp)
80000e94:	01312623          	sw	s3,12(sp)
80000e98:	00112e23          	sw	ra,28(sp)
80000e9c:	f0000737          	lui	a4,0xf0000
80000ea0:	fff78793          	addi	a5,a5,-1 # ffff <_stack_size+0xf7ff>
80000ea4:	00058613          	mv	a2,a1
80000ea8:	00050493          	mv	s1,a0
80000eac:	00058913          	mv	s2,a1
80000eb0:	00f72223          	sw	a5,4(a4) # f0000004 <_stack_start+0x6fffe444>
80000eb4:	00050593          	mv	a1,a0
80000eb8:	00000513          	li	a0,0
80000ebc:	ff0ff0ef          	jal	ra,800006ac <AddRoundKey>
80000ec0:	00100413          	li	s0,1
80000ec4:	00a00993          	li	s3,10
80000ec8:	00048513          	mv	a0,s1
80000ecc:	8f1ff0ef          	jal	ra,800007bc <SubBytes>
80000ed0:	00048513          	mv	a0,s1
80000ed4:	9f5ff0ef          	jal	ra,800008c8 <ShiftRows>
80000ed8:	00048513          	mv	a0,s1
80000edc:	a75ff0ef          	jal	ra,80000950 <MixColumns>
80000ee0:	00040513          	mv	a0,s0
80000ee4:	00140413          	addi	s0,s0,1
80000ee8:	00090613          	mv	a2,s2
80000eec:	00048593          	mv	a1,s1
80000ef0:	0ff47413          	zext.b	s0,s0
80000ef4:	fb8ff0ef          	jal	ra,800006ac <AddRoundKey>
80000ef8:	fd3418e3          	bne	s0,s3,80000ec8 <Cipher+0x48>
80000efc:	00048513          	mv	a0,s1
80000f00:	8bdff0ef          	jal	ra,800007bc <SubBytes>
80000f04:	00048513          	mv	a0,s1
80000f08:	9c1ff0ef          	jal	ra,800008c8 <ShiftRows>
80000f0c:	00090613          	mv	a2,s2
80000f10:	00048593          	mv	a1,s1
80000f14:	00a00513          	li	a0,10
80000f18:	f94ff0ef          	jal	ra,800006ac <AddRoundKey>
80000f1c:	01c12083          	lw	ra,28(sp)
80000f20:	01812403          	lw	s0,24(sp)
80000f24:	f00007b7          	lui	a5,0xf0000
80000f28:	0007a223          	sw	zero,4(a5) # f0000004 <_stack_start+0x6fffe444>
80000f2c:	01412483          	lw	s1,20(sp)
80000f30:	01012903          	lw	s2,16(sp)
80000f34:	00c12983          	lw	s3,12(sp)
80000f38:	02010113          	addi	sp,sp,32
80000f3c:	00008067          	ret

80000f40 <InvCipher>:
80000f40:	ff010113          	addi	sp,sp,-16
80000f44:	00912223          	sw	s1,4(sp)
80000f48:	01212023          	sw	s2,0(sp)
80000f4c:	00058613          	mv	a2,a1
80000f50:	00050493          	mv	s1,a0
80000f54:	00058913          	mv	s2,a1
80000f58:	00050593          	mv	a1,a0
80000f5c:	00a00513          	li	a0,10
80000f60:	00812423          	sw	s0,8(sp)
80000f64:	00112623          	sw	ra,12(sp)
80000f68:	00900413          	li	s0,9
80000f6c:	f40ff0ef          	jal	ra,800006ac <AddRoundKey>
80000f70:	00048513          	mv	a0,s1
80000f74:	ea9ff0ef          	jal	ra,80000e1c <InvShiftRows>
80000f78:	00048513          	mv	a0,s1
80000f7c:	d95ff0ef          	jal	ra,80000d10 <InvSubBytes>
80000f80:	00040513          	mv	a0,s0
80000f84:	00090613          	mv	a2,s2
80000f88:	00048593          	mv	a1,s1
80000f8c:	f20ff0ef          	jal	ra,800006ac <AddRoundKey>
80000f90:	fff40413          	addi	s0,s0,-1
80000f94:	00048513          	mv	a0,s1
80000f98:	0ff47413          	zext.b	s0,s0
80000f9c:	ba5ff0ef          	jal	ra,80000b40 <InvMixColumns>
80000fa0:	fc0418e3          	bnez	s0,80000f70 <InvCipher+0x30>
80000fa4:	00048513          	mv	a0,s1
80000fa8:	e75ff0ef          	jal	ra,80000e1c <InvShiftRows>
80000fac:	00048513          	mv	a0,s1
80000fb0:	d61ff0ef          	jal	ra,80000d10 <InvSubBytes>
80000fb4:	00812403          	lw	s0,8(sp)
80000fb8:	00c12083          	lw	ra,12(sp)
80000fbc:	00090613          	mv	a2,s2
80000fc0:	00048593          	mv	a1,s1
80000fc4:	00012903          	lw	s2,0(sp)
80000fc8:	00412483          	lw	s1,4(sp)
80000fcc:	00000513          	li	a0,0
80000fd0:	01010113          	addi	sp,sp,16
80000fd4:	ed8ff06f          	j	800006ac <AddRoundKey>

80000fd8 <AES_init_ctx>:
80000fd8:	c90ff06f          	j	80000468 <KeyExpansion>

80000fdc <AES_ECB_encrypt>:
80000fdc:	00050793          	mv	a5,a0
80000fe0:	00058513          	mv	a0,a1
80000fe4:	00078593          	mv	a1,a5
80000fe8:	e99ff06f          	j	80000e80 <Cipher>

80000fec <AES_ECB_decrypt>:
80000fec:	00050793          	mv	a5,a0
80000ff0:	00058513          	mv	a0,a1
80000ff4:	00078593          	mv	a1,a5
80000ff8:	f49ff06f          	j	80000f40 <InvCipher>

80000ffc <memcpy>:
80000ffc:	00b547b3          	xor	a5,a0,a1
80001000:	0037f793          	andi	a5,a5,3
80001004:	00c508b3          	add	a7,a0,a2
80001008:	06079663          	bnez	a5,80001074 <memcpy+0x78>
8000100c:	00300793          	li	a5,3
80001010:	06c7f263          	bgeu	a5,a2,80001074 <memcpy+0x78>
80001014:	00357793          	andi	a5,a0,3
80001018:	00050713          	mv	a4,a0
8000101c:	0c079a63          	bnez	a5,800010f0 <memcpy+0xf4>
80001020:	ffc8f613          	andi	a2,a7,-4
80001024:	40e606b3          	sub	a3,a2,a4
80001028:	02000793          	li	a5,32
8000102c:	02000293          	li	t0,32
80001030:	06d7c263          	blt	a5,a3,80001094 <memcpy+0x98>
80001034:	00058693          	mv	a3,a1
80001038:	00070793          	mv	a5,a4
8000103c:	02c77863          	bgeu	a4,a2,8000106c <memcpy+0x70>
80001040:	0006a803          	lw	a6,0(a3)
80001044:	00478793          	addi	a5,a5,4
80001048:	00468693          	addi	a3,a3,4
8000104c:	ff07ae23          	sw	a6,-4(a5)
80001050:	fec7e8e3          	bltu	a5,a2,80001040 <memcpy+0x44>
80001054:	fff60793          	addi	a5,a2,-1
80001058:	40e787b3          	sub	a5,a5,a4
8000105c:	ffc7f793          	andi	a5,a5,-4
80001060:	00478793          	addi	a5,a5,4
80001064:	00f70733          	add	a4,a4,a5
80001068:	00f585b3          	add	a1,a1,a5
8000106c:	01176863          	bltu	a4,a7,8000107c <memcpy+0x80>
80001070:	00008067          	ret
80001074:	00050713          	mv	a4,a0
80001078:	ff157ce3          	bgeu	a0,a7,80001070 <memcpy+0x74>
8000107c:	0005c783          	lbu	a5,0(a1)
80001080:	00170713          	addi	a4,a4,1
80001084:	00158593          	addi	a1,a1,1
80001088:	fef70fa3          	sb	a5,-1(a4)
8000108c:	ff1768e3          	bltu	a4,a7,8000107c <memcpy+0x80>
80001090:	00008067          	ret
80001094:	0045a683          	lw	a3,4(a1)
80001098:	01c5a783          	lw	a5,28(a1)
8000109c:	0005af83          	lw	t6,0(a1)
800010a0:	0085af03          	lw	t5,8(a1)
800010a4:	00c5ae83          	lw	t4,12(a1)
800010a8:	0105ae03          	lw	t3,16(a1)
800010ac:	0145a303          	lw	t1,20(a1)
800010b0:	0185a803          	lw	a6,24(a1)
800010b4:	00d72223          	sw	a3,4(a4)
800010b8:	0205a683          	lw	a3,32(a1)
800010bc:	01f72023          	sw	t6,0(a4)
800010c0:	01e72423          	sw	t5,8(a4)
800010c4:	01d72623          	sw	t4,12(a4)
800010c8:	01c72823          	sw	t3,16(a4)
800010cc:	00672a23          	sw	t1,20(a4)
800010d0:	01072c23          	sw	a6,24(a4)
800010d4:	00f72e23          	sw	a5,28(a4)
800010d8:	02470713          	addi	a4,a4,36
800010dc:	40e607b3          	sub	a5,a2,a4
800010e0:	fed72e23          	sw	a3,-4(a4)
800010e4:	02458593          	addi	a1,a1,36
800010e8:	faf2c6e3          	blt	t0,a5,80001094 <memcpy+0x98>
800010ec:	f49ff06f          	j	80001034 <memcpy+0x38>
800010f0:	0005c683          	lbu	a3,0(a1)
800010f4:	00170713          	addi	a4,a4,1
800010f8:	00377793          	andi	a5,a4,3
800010fc:	fed70fa3          	sb	a3,-1(a4)
80001100:	00158593          	addi	a1,a1,1
80001104:	f0078ee3          	beqz	a5,80001020 <memcpy+0x24>
80001108:	0005c683          	lbu	a3,0(a1)
8000110c:	00170713          	addi	a4,a4,1
80001110:	00377793          	andi	a5,a4,3
80001114:	fed70fa3          	sb	a3,-1(a4)
80001118:	00158593          	addi	a1,a1,1
8000111c:	fc079ae3          	bnez	a5,800010f0 <memcpy+0xf4>
80001120:	f01ff06f          	j	80001020 <memcpy+0x24>

Disassembly of section .text.startup:

80001124 <main>:
80001124:	fe010113          	addi	sp,sp,-32
80001128:	00812c23          	sw	s0,24(sp)
8000112c:	00010437          	lui	s0,0x10
80001130:	f00007b7          	lui	a5,0xf0000
80001134:	fff40713          	addi	a4,s0,-1 # ffff <_stack_size+0xf7ff>
80001138:	00112e23          	sw	ra,28(sp)
8000113c:	00e7a423          	sw	a4,8(a5) # f0000008 <_stack_start+0x6fffe448>
80001140:	0007a223          	sw	zero,4(a5)
80001144:	00010513          	mv	a0,sp
80001148:	fcdfe0ef          	jal	ra,80000114 <uart_applyConfig.constprop.0>
8000114c:	f00207b7          	lui	a5,0xf0020
80001150:	fff00693          	li	a3,-1
80001154:	00140713          	addi	a4,s0,1
80001158:	04d7a223          	sw	a3,68(a5) # f0020044 <_stack_start+0x7001e484>
8000115c:	04e7a023          	sw	a4,64(a5)
80001160:	a0040413          	addi	s0,s0,-1536
80001164:	fff40413          	addi	s0,s0,-1
80001168:	840ff0ef          	jal	ra,800001a8 <flashes>
8000116c:	fe041ce3          	bnez	s0,80001164 <main+0x40>
80001170:	80001537          	lui	a0,0x80001
80001174:	19050513          	addi	a0,a0,400 # 80001190 <_stack_start+0xfffff5d0>
80001178:	ff9fe0ef          	jal	ra,80000170 <print>
8000117c:	01c12083          	lw	ra,28(sp)
80001180:	01812403          	lw	s0,24(sp)
80001184:	00000513          	li	a0,0
80001188:	02010113          	addi	sp,sp,32
8000118c:	00008067          	ret

Disassembly of section .rodata:

80001190 <sbox-0xc>:
80001190:	6946                	flw	fs2,80(sp)
80001192:	696e                	flw	fs2,216(sp)
80001194:	0d216873          	csrrsi	a6,0xd2,2
80001198:	000a                	c.slli	zero,0x2
	...

8000119c <sbox>:
8000119c:	7b777c63          	bgeu	a4,s7,80001954 <_bss_end+0x59c>
800011a0:	6bf2                	flw	fs7,28(sp)
800011a2:	0130c56f          	jal	a0,8000d9b4 <_stack_start+0xbdf4>
800011a6:	d7fe2b67          	0xd7fe2b67
800011aa:	82ca76ab          	0x82ca76ab
800011ae:	7dc9                	lui	s11,0xffff2
800011b0:	59fa                	lw	s3,188(sp)
800011b2:	d4adf047          	0xd4adf047
800011b6:	afa2                	fsd	fs0,472(sp)
800011b8:	a49c                	fsd	fa5,8(s1)
800011ba:	c072                	sw	t3,0(sp)
800011bc:	2693fdb7          	lui	s11,0x2693f
800011c0:	3f36                	fld	ft10,360(sp)
800011c2:	a534ccf7          	0xa534ccf7
800011c6:	f1e5                	bnez	a1,800011a6 <sbox+0xa>
800011c8:	d871                	beqz	s0,8000119c <sbox>
800011ca:	1531                	addi	a0,a0,-20
800011cc:	c704                	sw	s1,8(a4)
800011ce:	9618c323          	0x9618c323
800011d2:	9a05                	andi	a2,a2,-31
800011d4:	e2801207          	0xe2801207
800011d8:	75b227eb          	0x75b227eb
800011dc:	8309                	srli	a4,a4,0x2
800011de:	1a2c                	addi	a1,sp,312
800011e0:	a05a6e1b          	0xa05a6e1b
800011e4:	3b52                	fld	fs6,304(sp)
800011e6:	b3d6                	fsd	fs5,480(sp)
800011e8:	e329                	bnez	a4,8000122a <sbox+0x8e>
800011ea:	d153842f          	0xd153842f
800011ee:	ed00                	fsw	fs0,24(a0)
800011f0:	fc20                	fsw	fs0,120(s0)
800011f2:	5bb1                	li	s7,-20
800011f4:	cb6a                	sw	s10,148(sp)
800011f6:	39be                	fld	fs3,488(sp)
800011f8:	4c4a                	lw	s8,144(sp)
800011fa:	cf58                	sw	a4,28(a4)
800011fc:	efd0                	fsw	fa2,28(a5)
800011fe:	fbaa                	fsw	fa0,244(sp)
80001200:	85334d43          	0x85334d43
80001204:	f945                	bnez	a0,800011b4 <sbox+0x18>
80001206:	7f02                	flw	ft10,32(sp)
80001208:	3c50                	fld	fa2,184(s0)
8000120a:	a89f a351 8f40      	0x8f40a351a89f
80001210:	9d92                	add	s11,s11,tp
80001212:	f538                	fsw	fa4,104(a0)
80001214:	b6bc                	fsd	fa5,104(a3)
80001216:	21da                	fld	ft3,400(sp)
80001218:	ff10                	fsw	fa2,56(a4)
8000121a:	0ccdd2f3          	csrrwi	t0,0xcc,27
8000121e:	975fec13          	ori	s8,t6,-1675
80001222:	1744                	addi	s1,sp,932
80001224:	a7c4                	fsd	fs1,136(a5)
80001226:	3d7e                	fld	fs10,504(sp)
80001228:	5d64                	lw	s1,124(a0)
8000122a:	7319                	lui	t1,0xfffe6
8000122c:	8160                	0x8160
8000122e:	2a22dc4f          	fnmadd.d	fs8,ft5,ft2,ft5,unknown
80001232:	8890                	0x8890
80001234:	ee46                	fsw	fa7,28(sp)
80001236:	14b8                	addi	a4,sp,616
80001238:	5ede                	lw	t4,244(sp)
8000123a:	32e0db0b          	0x32e0db0b
8000123e:	0a3a                	slli	s4,s4,0xe
80001240:	0649                	addi	a2,a2,18
80001242:	5c24                	lw	s1,120(s0)
80001244:	d3c2                	sw	a6,228(sp)
80001246:	62ac                	flw	fa1,64(a3)
80001248:	9591                	srai	a1,a1,0x24
8000124a:	79e4                	flw	fs1,116(a1)
8000124c:	6d37c8e7          	0x6d37c8e7
80001250:	d58d                	beqz	a1,8000117a <main+0x56>
80001252:	a94e                	fsd	fs3,144(sp)
80001254:	566c                	lw	a1,108(a2)
80001256:	eaf4                	fsw	fa3,84(a3)
80001258:	7a65                	lui	s4,0xffff9
8000125a:	08ae                	slli	a7,a7,0xb
8000125c:	78ba                	flw	fa7,172(sp)
8000125e:	2e25                	jal	80001596 <_bss_end+0x1de>
80001260:	a61c                	fsd	fa5,8(a2)
80001262:	c6b4                	sw	a3,72(a3)
80001264:	dde8                	sw	a0,124(a1)
80001266:	1f74                	addi	a3,sp,956
80001268:	8a8bbd4b          	fnmsub.d	fs10,fs7,fs0,fa7,rup
8000126c:	3e70                	fld	fa2,248(a2)
8000126e:	66b5                	lui	a3,0xd
80001270:	0348                	addi	a0,sp,388
80001272:	0ef6                	slli	t4,t4,0x1d
80001274:	3561                	jal	800010fc <memcpy+0x100>
80001276:	c186b957          	0xc186b957
8000127a:	9e1d                	0x9e1d
8000127c:	f8e1                	bnez	s1,8000124c <sbox+0xb0>
8000127e:	1198                	addi	a4,sp,224
80001280:	d969                	beqz	a0,80001252 <sbox+0xb6>
80001282:	948e                	add	s1,s1,gp
80001284:	e9871e9b          	0xe9871e9b
80001288:	55ce                	lw	a1,240(sp)
8000128a:	df28                	sw	a0,120(a4)
8000128c:	a18c                	fsd	fa1,0(a1)
8000128e:	0d89                	addi	s11,s11,2
80001290:	6842e6bf 0f2d9941 	0xf2d99416842e6bf
80001298:	54b0                	lw	a2,104(s1)
8000129a:	          	0x18d16bb

8000129c <Rcon>:
8000129c:	018d                	addi	gp,gp,3
8000129e:	0402                	c.slli64	s0
800012a0:	1008                	addi	a0,sp,32
800012a2:	4020                	lw	s0,64(s0)
800012a4:	1b80                	addi	s0,sp,496
800012a6:	0036                	c.slli	zero,0xd

800012a8 <rsbox>:
800012a8:	0952                	slli	s2,s2,0x14
800012aa:	d56a                	sw	s10,168(sp)
800012ac:	3630                	fld	fa2,104(a2)
800012ae:	38a5                	jal	80000b26 <MixColumns+0x1d6>
800012b0:	9ea340bf fbd7f381 	0xfbd7f3819ea340bf
800012b8:	e37c                	fsw	fa5,68(a4)
800012ba:	8239                	srli	a2,a2,0xe
800012bc:	87ff2f9b          	0x87ff2f9b
800012c0:	8e34                	0x8e34
800012c2:	dec44443          	fmadd.q	fs0,fs0,fa2,fs11,rmm
800012c6:	cbe9                	beqz	a5,80001398 <rsbox+0xf0>
800012c8:	7b54                	flw	fa3,52(a4)
800012ca:	3294                	fld	fa3,32(a3)
800012cc:	c2a6                	sw	s1,68(sp)
800012ce:	4cee3d23          	0x4cee3d23
800012d2:	0b95                	addi	s7,s7,5
800012d4:	fa42                	fsw	fa6,52(sp)
800012d6:	2e084ec3          	fmadd.q	ft9,fa6,ft0,ft5,rmm
800012da:	66a1                	lui	a3,0x8
800012dc:	d928                	sw	a0,112(a0)
800012de:	b224                	fsd	fs1,96(a2)
800012e0:	5b76                	lw	s6,124(sp)
800012e2:	49a2                	lw	s3,8(sp)
800012e4:	8b6d                	andi	a4,a4,27
800012e6:	25d1                	jal	800019aa <_bss_end+0x5f2>
800012e8:	f872                	fsw	ft8,48(sp)
800012ea:	64f6                	flw	fs1,92(sp)
800012ec:	6886                	flw	fa7,64(sp)
800012ee:	1698                	addi	a4,sp,864
800012f0:	a4d4                	fsd	fa3,136(s1)
800012f2:	cc5c                	sw	a5,28(s0)
800012f4:	655d                	lui	a0,0x17
800012f6:	92b6                	add	t0,t0,a3
800012f8:	706c                	flw	fa1,100(s0)
800012fa:	5048                	lw	a0,36(s0)
800012fc:	edfd                	bnez	a1,800013fa <_bss_end+0x42>
800012fe:	dab9                	beqz	a3,80001254 <sbox+0xb8>
80001300:	155e                	slli	a0,a0,0x37
80001302:	5746                	lw	a4,112(sp)
80001304:	849d8da7          	0x849d8da7
80001308:	d890                	sw	a2,48(s1)
8000130a:	bc8c00ab          	0xbc8c00ab
8000130e:	e4f70ad3          	0xe4f70ad3
80001312:	0558                	addi	a4,sp,644
80001314:	b3b8                	fsd	fa4,96(a5)
80001316:	0645                	addi	a2,a2,17
80001318:	2cd0                	fld	fa2,152(s1)
8000131a:	8f1e                	mv	t5,t2
8000131c:	3fca                	fld	ft11,176(sp)
8000131e:	afc1020f          	0xafc1020f
80001322:	03bd                	addi	t2,t2,15
80001324:	1301                	addi	t1,t1,-32
80001326:	6b8a                	flw	fs7,128(sp)
80001328:	913a                	add	sp,sp,a4
8000132a:	4111                	li	sp,4
8000132c:	eadc674f          	fnmadd.d	fa4,fs8,fa3,ft9,unknown
80001330:	cecff297          	auipc	t0,0xcecff
80001334:	b4f0                	fsd	fa2,232(s1)
80001336:	73e6                	flw	ft7,120(sp)
80001338:	ac96                	fsd	ft5,88(sp)
8000133a:	2274                	fld	fa3,192(a2)
8000133c:	8535ade7          	0x8535ade7
80001340:	f9e2                	fsw	fs8,240(sp)
80001342:	751ce837          	lui	a6,0x751ce
80001346:	6edf f147 711a      	0x711af1476edf
8000134c:	291d                	jal	80001782 <_bss_end+0x3ca>
8000134e:	89c5                	andi	a1,a1,17
80001350:	0e62b76f          	jal	a4,8002c436 <_stack_start+0x2a876>
80001354:	18aa                	slli	a7,a7,0x2a
80001356:	1bbe                	slli	s7,s7,0x2f
80001358:	56fc                	lw	a5,108(a3)
8000135a:	4b3e                	lw	s6,204(sp)
8000135c:	d2c6                	sw	a7,100(sp)
8000135e:	2079                	jal	800013ec <_bss_end+0x34>
80001360:	db9a                	sw	t1,244(sp)
80001362:	fec0                	fsw	fs0,60(a3)
80001364:	cd78                	sw	a4,92(a0)
80001366:	f45a                	fsw	fs6,40(sp)
80001368:	dd1f 33a8 0788      	0x78833a8dd1f
8000136e:	12b131c7          	fmsub.d	ft3,ft2,fa1,ft2,rup
80001372:	5910                	lw	a2,48(a0)
80001374:	5fec8027          	0x5fec8027
80001378:	5160                	lw	s0,100(a0)
8000137a:	a97f                	0xa97f
8000137c:	b519                	j	80001182 <main+0x5e>
8000137e:	0d4a                	slli	s10,s10,0x12
80001380:	e52d                	bnez	a0,800013ea <_bss_end+0x32>
80001382:	9f7a                	add	t5,t5,t5
80001384:	ef9cc993          	xori	s3,s9,-263
80001388:	e0a0                	fsw	fs0,64(s1)
8000138a:	2aae4d3b          	0x2aae4d3b
8000138e:	b0f5                	j	80000c7a <InvMixColumns+0x13a>
80001390:	ebc8                	fsw	fa0,20(a5)
80001392:	53833cbb          	0x53833cbb
80001396:	6199                	lui	gp,0x6
80001398:	7e042b17          	auipc	s6,0x7e042
8000139c:	77ba                	flw	fa5,172(sp)
8000139e:	26d6                	fld	fa3,336(sp)
800013a0:	69e1                	lui	s3,0x18
800013a2:	6314                	flw	fa3,0(a4)
800013a4:	2155                	jal	80001848 <_bss_end+0x490>
800013a6:	7d0c                	flw	fa1,56(a0)

Disassembly of section .bss:

800013a8 <trap_induced_ebreak.0>:
800013a8:	0000                	unimp
	...

800013ac <exception_cause>:
800013ac:	0000                	unimp
	...

800013b0 <exception_instr>:
800013b0:	0000                	unimp
	...

800013b4 <exception_addr>:
800013b4:	0000                	unimp
	...

Disassembly of section ._stack:

800013b8 <_stack_start-0x808>:
	...

Disassembly of section .debug_info:

00000000 <.debug_info>:
       0:	04e0                	addi	s0,sp,588
       2:	0000                	unimp
       4:	0005                	c.nop	1
       6:	0401                	addi	s0,s0,0
       8:	0000                	unimp
       a:	0000                	unimp
       c:	b516                	fsd	ft5,168(sp)
       e:	0000                	unimp
      10:	1d00                	addi	s0,sp,688
      12:	0000                	unimp
      14:	0000                	unimp
      16:	0011                	c.nop	4
      18:	0000                	unimp
      1a:	0000003b          	0x3b
	...
      26:	0102                	c.slli64	sp
      28:	b606                	fsd	ft1,296(sp)
      2a:	0001                	nop
      2c:	0200                	addi	s0,sp,256
      2e:	0801                	addi	a6,a6,0
      30:	01b4                	addi	a3,sp,200
      32:	0000                	unimp
      34:	0202                	c.slli64	tp
      36:	c205                	beqz	a2,56 <_heap_size+0x56>
      38:	0001                	nop
      3a:	0300                	addi	s0,sp,384
      3c:	0201                	addi	tp,tp,0
      3e:	0000                	unimp
      40:	47193903          	0x47193903
      44:	0000                	unimp
      46:	0200                	addi	s0,sp,256
      48:	0702                	c.slli64	a4
      4a:	0135                	addi	sp,sp,13
      4c:	0000                	unimp
      4e:	0402                	c.slli64	s0
      50:	4305                	li	t1,1
      52:	0000                	unimp
      54:	0300                	addi	s0,sp,384
      56:	0086                	slli	ra,ra,0x1
      58:	0000                	unimp
      5a:	61194f03          	lbu	t5,1553(s2)
      5e:	0000                	unimp
      60:	0200                	addi	s0,sp,256
      62:	0704                	addi	s1,sp,896
      64:	001f 0000 0802      	0x8020000001f
      6a:	3e05                	jal	fffffb9a <_stack_start+0x7fffdfda>
      6c:	0000                	unimp
      6e:	0200                	addi	s0,sp,256
      70:	0708                	addi	a0,sp,896
      72:	001a                	c.slli	zero,0x6
      74:	0000                	unimp
      76:	69050417          	auipc	s0,0x69050
      7a:	746e                	flw	fs0,248(sp)
      7c:	0200                	addi	s0,sp,256
      7e:	0704                	addi	s1,sp,896
      80:	0024                	addi	s1,sp,8
      82:	0000                	unimp
      84:	1002                	c.slli	zero,0x20
      86:	7b04                	flw	fs1,48(a4)
      88:	0001                	nop
      8a:	0800                	addi	s0,sp,16
      8c:	0090                	addi	a2,sp,64
      8e:	0000                	unimp
      90:	0102                	c.slli64	sp
      92:	bd08                	fsd	fa0,56(a0)
      94:	0001                	nop
      96:	0300                	addi	s0,sp,384
      98:	00000203          	lb	tp,0(zero) # 0 <_heap_size>
      9c:	2404                	fld	fs1,8(s0)
      9e:	3b14                	fld	fa3,48(a4)
      a0:	0000                	unimp
      a2:	0300                	addi	s0,sp,384
      a4:	0088                	addi	a0,sp,64
      a6:	0000                	unimp
      a8:	3004                	fld	fs1,32(s0)
      aa:	5514                	lw	a3,40(a0)
      ac:	0000                	unimp
      ae:	1800                	addi	s0,sp,48
      b0:	000000a3          	sb	zero,1(zero) # 1 <_heap_size+0x1>
      b4:	00009103          	lh	sp,0(ra)
      b8:	0500                	addi	s0,sp,640
      ba:	0061136b          	0x61136b
      be:	0000                	unimp
      c0:	0c05                	addi	s8,s8,1
      c2:	0706                	slli	a4,a4,0x1
      c4:	00f0                	addi	a2,sp,76
      c6:	0000                	unimp
      c8:	4d01                	li	s10,0
      ca:	0001                	nop
      cc:	0600                	addi	s0,sp,768
      ce:	1509                	addi	a0,a0,-30
      d0:	000000af          	0xaf
      d4:	0100                	addi	s0,sp,128
      d6:	0014                	0x14
      d8:	0000                	unimp
      da:	0a06                	slli	s4,s4,0x1
      dc:	af15                	j	810 <_stack_size+0x10>
      de:	0000                	unimp
      e0:	0400                	addi	s0,sp,512
      e2:	6201                	0x6201
      e4:	0002                	c.slli64	zero
      e6:	0600                	addi	s0,sp,768
      e8:	00af150b          	0xaf150b
      ec:	0000                	unimp
      ee:	0008                	0x8
      f0:	0001cc03          	lbu	s8,0(gp) # 6000 <_stack_size+0x5800>
      f4:	0600                	addi	s0,sp,768
      f6:	030c                	addi	a1,sp,384
      f8:	00c0                	addi	s0,sp,68
      fa:	0000                	unimp
      fc:	1005                	c.nop	-31
      fe:	0501                	addi	a0,a0,0
     100:	0139                	addi	sp,sp,14
     102:	0000                	unimp
     104:	4801                	li	a6,0
     106:	0001                	nop
     108:	0100                	addi	s0,sp,128
     10a:	00af1507          	0xaf1507
     10e:	0000                	unimp
     110:	0100                	addi	s0,sp,128
     112:	0000025b          	0x25b
     116:	0801                	addi	a6,a6,0
     118:	af15                	j	84c <_stack_size+0x4c>
     11a:	0000                	unimp
     11c:	0400                	addi	s0,sp,512
     11e:	3d01                	jal	ffffff2e <_stack_start+0x7fffe36e>
     120:	0002                	c.slli64	zero
     122:	0100                	addi	s0,sp,128
     124:	1509                	addi	a0,a0,-30
     126:	000000af          	0xaf
     12a:	0108                	addi	a0,sp,128
     12c:	01ed                	addi	gp,gp,27
     12e:	0000                	unimp
     130:	0a01                	addi	s4,s4,0
     132:	af15                	j	866 <_stack_size+0x66>
     134:	0000                	unimp
     136:	0c00                	addi	s0,sp,528
     138:	0300                	addi	s0,sp,384
     13a:	0000000b          	0xb
     13e:	0b01                	addi	s6,s6,0
     140:	0000fc03          	0xfc03
     144:	0f00                	addi	s0,sp,912
     146:	0288                	addi	a0,sp,320
     148:	0000                	unimp
     14a:	007d                	c.nop	31
     14c:	0000                	unimp
     14e:	660d                	lui	a2,0x3
     150:	0001                	nop
     152:	1000                	addi	s0,sp,32
     154:	0000                	unimp
     156:	0000                	unimp
     158:	1000                	addi	s0,sp,32
     15a:	0190                	addi	a2,sp,192
     15c:	0000                	unimp
     15e:	0901                	addi	s2,s2,0
     160:	0044444f          	fnmadd.s	fs0,fs0,ft4,ft0,rmm
     164:	0002                	c.slli64	zero
     166:	0000510f          	0x510f
     16a:	7d00                	flw	fs0,56(a0)
     16c:	0000                	unimp
     16e:	0e00                	addi	s0,sp,784
     170:	0181                	addi	gp,gp,0
     172:	0000                	unimp
     174:	4f09                	li	t5,2
     176:	454e                	lw	a0,208(sp)
     178:	0000                	unimp
     17a:	5409                	li	s0,-30
     17c:	01004f57          	0x1004f57
     180:	0500                	addi	s0,sp,640
     182:	0110                	addi	a2,sp,128
     184:	be10                	fsd	fa2,56(a2)
     186:	0001                	nop
     188:	0100                	addi	s0,sp,128
     18a:	0069                	c.nop	26
     18c:	0000                	unimp
     18e:	1101                	addi	sp,sp,-32
     190:	0000a30b          	0xa30b
     194:	0000                	unimp
     196:	7401                	lui	s0,0xfffe0
     198:	0000                	unimp
     19a:	0100                	addi	s0,sp,128
     19c:	1212                	slli	tp,tp,0x24
     19e:	0145                	addi	sp,sp,17
     1a0:	0000                	unimp
     1a2:	0104                	addi	s1,sp,128
     1a4:	00000273          	0x273
     1a8:	1301                	addi	t1,t1,-32
     1aa:	6610                	flw	fa2,8(a2)
     1ac:	0001                	nop
     1ae:	0800                	addi	s0,sp,16
     1b0:	6e01                	0x6e01
     1b2:	0001                	nop
     1b4:	0100                	addi	s0,sp,128
     1b6:	0b14                	addi	a3,sp,400
     1b8:	000000a3          	sb	zero,1(zero) # 1 <_heap_size+0x1>
     1bc:	000c                	0xc
     1be:	00020c03          	lb	s8,0(tp) # 0 <_heap_size>
     1c2:	0100                	addi	s0,sp,128
     1c4:	0315                	addi	t1,t1,5
     1c6:	0181                	addi	gp,gp,0
     1c8:	0000                	unimp
     1ca:	0c05                	addi	s8,s8,1
     1cc:	01fa0507          	0x1fa0507
     1d0:	0000                	unimp
     1d2:	ae01                	j	4e2 <_heap_size+0x4e2>
     1d4:	0001                	nop
     1d6:	0700                	addi	s0,sp,896
     1d8:	00af1507          	0xaf1507
     1dc:	0000                	unimp
     1de:	0100                	addi	s0,sp,128
     1e0:	000000a7          	0xa7
     1e4:	af150807          	0xaf150807
     1e8:	0000                	unimp
     1ea:	0400                	addi	s0,sp,512
     1ec:	9901                	andi	a0,a0,-32
     1ee:	0000                	unimp
     1f0:	0700                	addi	s0,sp,896
     1f2:	1509                	addi	a0,a0,-30
     1f4:	000000af          	0xaf
     1f8:	0008                	0x8
     1fa:	00018703          	lb	a4,0(gp) # 80001ba8 <__global_pointer$>
     1fe:	0700                	addi	s0,sp,896
     200:	030a                	slli	t1,t1,0x2
     202:	01ca                	slli	gp,gp,0x12
     204:	0000                	unimp
     206:	5a0a                	lw	s4,160(sp)
     208:	0000                	unimp
     20a:	5600                	lw	s0,40(a2)
     20c:	0076                	c.slli	zero,0x1d
     20e:	0000                	unimp
     210:	0305                	addi	t1,t1,1
     212:	13b4                	addi	a3,sp,488
     214:	8000                	0x8000
     216:	4b0a                	lw	s6,128(sp)
     218:	0002                	c.slli64	zero
     21a:	5700                	lw	s0,40(a4)
     21c:	0076                	c.slli	zero,0x1d
     21e:	0000                	unimp
     220:	0305                	addi	t1,t1,1
     222:	13b0                	addi	a2,sp,488
     224:	8000                	0x8000
     226:	780a                	flw	fa6,160(sp)
     228:	0002                	c.slli64	zero
     22a:	5800                	lw	s0,48(s0)
     22c:	0076                	c.slli	zero,0x1d
     22e:	0000                	unimp
     230:	0305                	addi	t1,t1,1
     232:	13ac                	addi	a1,sp,488
     234:	8000                	0x8000
     236:	a619                	j	53c <_heap_size+0x53c>
     238:	0001                	nop
     23a:	0200                	addi	s0,sp,256
     23c:	0112                	slli	sp,sp,0x4
     23e:	a80d                	j	270 <_heap_size+0x270>
     240:	0001                	nop
     242:	8480                	0x8480
     244:	0000                	unimp
     246:	0100                	addi	s0,sp,128
     248:	879c                	0x879c
     24a:	0002                	c.slli64	zero
     24c:	1a00                	addi	s0,sp,304
     24e:	000c                	0xc
     250:	0000                	unimp
     252:	02006a1b          	0x2006a1b
     256:	0115                	addi	sp,sp,5
     258:	0000a313          	slti	t1,ra,0
     25c:	0c00                	addi	s0,sp,528
     25e:	0000                	unimp
     260:	1100                	addi	s0,sp,160
     262:	01d4                	addi	a3,sp,196
     264:	8000                	0x8000
     266:	03d0                	addi	a2,sp,452
     268:	0000                	unimp
     26a:	0275                	addi	tp,tp,29
     26c:	0000                	unimp
     26e:	0106                	slli	sp,sp,0x1
     270:	025a                	slli	tp,tp,0x16
     272:	0078                	addi	a4,sp,12
     274:	0700                	addi	s0,sp,896
     276:	01fc                	addi	a5,sp,204
     278:	8000                	0x8000
     27a:	03d0                	addi	a2,sp,452
     27c:	0000                	unimp
     27e:	0106                	slli	sp,sp,0x1
     280:	025a                	slli	tp,tp,0x16
     282:	0078                	addi	a4,sp,12
     284:	0000                	unimp
     286:	1c00                	addi	s0,sp,560
     288:	0268                	addi	a0,sp,268
     28a:	0000                	unimp
     28c:	3808                	fld	fa0,48(s0)
     28e:	b40c                	fsd	fa1,40(s0)
     290:	0000                	unimp
     292:	6800                	flw	fs0,16(s0)
     294:	0002                	c.slli64	zero
     296:	0c80                	addi	s0,sp,592
     298:	0000                	unimp
     29a:	0100                	addi	s0,sp,128
     29c:	1d9c                	addi	a5,sp,752
     29e:	01d6                	slli	gp,gp,0x15
     2a0:	0000                	unimp
     2a2:	5902                	lw	s2,32(sp)
     2a4:	2c06                	fld	fs8,64(sp)
     2a6:	0002                	c.slli64	zero
     2a8:	3c80                	fld	fs0,56(s1)
     2aa:	0000                	unimp
     2ac:	0100                	addi	s0,sp,128
     2ae:	369c                	fld	fa5,40(a3)
     2b0:	04000003          	lb	zero,64(zero) # 40 <_heap_size+0x40>
     2b4:	015a                	slli	sp,sp,0x16
     2b6:	0000                	unimp
     2b8:	105a                	c.slli	zero,0x36
     2ba:	0076                	c.slli	zero,0x1d
     2bc:	0000                	unimp
     2be:	0305                	addi	t1,t1,1
     2c0:	13a8                	addi	a0,sp,488
     2c2:	8000                	0x8000
     2c4:	4c04                	lw	s1,24(s0)
     2c6:	0000                	unimp
     2c8:	5c00                	lw	s0,56(s0)
     2ca:	7609                	lui	a2,0xfffe2
     2cc:	0000                	unimp
     2ce:	0100                	addi	s0,sp,128
     2d0:	0237045b          	0x237045b
     2d4:	0000                	unimp
     2d6:	095d                	addi	s2,s2,23
     2d8:	0076                	c.slli	zero,0x1d
     2da:	0000                	unimp
     2dc:	5c01                	li	s8,-32
     2de:	ae04                	fsd	fs1,24(a2)
     2e0:	0000                	unimp
     2e2:	5e00                	lw	s0,56(a2)
     2e4:	7609                	lui	a2,0xfffe2
     2e6:	0000                	unimp
     2e8:	0100                	addi	s0,sp,128
     2ea:	125d                	addi	tp,tp,-9
     2ec:	022c                	addi	a1,sp,264
     2ee:	8000                	0x8000
     2f0:	0004                	0x4
     2f2:	0000                	unimp
     2f4:	0305                	addi	t1,t1,1
     2f6:	0000                	unimp
     2f8:	765f5f0b          	0x765f5f0b
     2fc:	5c00                	lw	s0,56(s0)
     2fe:	000000a3          	sb	zero,1(zero) # 1 <_heap_size+0x1>
     302:	5b01                	li	s6,-32
     304:	1200                	addi	s0,sp,288
     306:	0230                	addi	a2,sp,264
     308:	8000                	0x8000
     30a:	0004                	0x4
     30c:	0000                	unimp
     30e:	031f 0000 5f0b      	0x5f0b0000031f
     314:	765f 5d00 00a3      	0xa35d00765f
     31a:	0000                	unimp
     31c:	5c01                	li	s8,-32
     31e:	1e00                	addi	s0,sp,816
     320:	0234                	addi	a3,sp,264
     322:	8000                	0x8000
     324:	0004                	0x4
     326:	0000                	unimp
     328:	765f5f0b          	0x765f5f0b
     32c:	5e00                	lw	s0,56(a2)
     32e:	000000a3          	sb	zero,1(zero) # 1 <_heap_size+0x1>
     332:	5d01                	li	s10,-32
     334:	0000                	unimp
     336:	6e1f 0002 0200      	0x20000026e1f
     33c:	051f 0076 0000      	0x76051f
     342:	1124                	addi	s1,sp,168
     344:	8000                	0x8000
     346:	006c                	addi	a1,sp,12
     348:	0000                	unimp
     34a:	9c01                	0x9c01
     34c:	03d0                	addi	a2,sp,452
     34e:	0000                	unimp
     350:	3620                	fld	fs0,104(a2)
     352:	0000                	unimp
     354:	0200                	addi	s0,sp,256
     356:	0b24                	addi	s1,sp,408
     358:	000000a3          	sb	zero,1(zero) # 1 <_heap_size+0x1>
     35c:	f080                	fsw	fs0,32(s1)
     35e:	02fa                	slli	t0,t0,0x1e
     360:	1821                	addi	a6,a6,-24
     362:	0002                	c.slli64	zero
     364:	0200                	addi	s0,sp,256
     366:	0b25                	addi	s6,s6,9
     368:	00000097          	auipc	ra,0x0
     36c:	0431                	addi	s0,s0,12
     36e:	01e2                	slli	gp,gp,0x18
     370:	0000                	unimp
     372:	01be0e2b          	0x1be0e2b
     376:	0000                	unimp
     378:	9102                	jalr	sp
     37a:	2260                	fld	fs0,192(a2)
     37c:	0028                	addi	a0,sp,8
     37e:	0000                	unimp
     380:	039c                	addi	a5,sp,448
     382:	0000                	unimp
     384:	02006923          	0x2006923
     388:	00a3104b          	fnmsub.s	ft0,ft6,fa0,ft0,rtz
     38c:	0000                	unimp
     38e:	0000002f          	0x2f
     392:	6c24                	flw	fs1,88(s0)
     394:	0011                	c.nop	4
     396:	3680                	fld	fs0,40(a3)
     398:	0002                	c.slli64	zero
     39a:	0000                	unimp
     39c:	4c11                	li	s8,4
     39e:	0011                	c.nop	4
     3a0:	7680                	flw	fs0,40(a3)
     3a2:	0004                	0x4
     3a4:	bc00                	fsd	fs0,56(s0)
     3a6:	06000003          	lb	zero,96(zero) # 60 <_heap_size+0x60>
     3aa:	5a01                	li	s4,-32
     3ac:	7202                	flw	ft4,32(sp)
     3ae:	0c00                	addi	s0,sp,528
     3b0:	00000417          	auipc	s0,0x0
     3b4:	1106                	slli	sp,sp,0x21
     3b6:	8080                	0x8080
     3b8:	8084                	0x8084
     3ba:	007f                	0x7f
     3bc:	00117c07          	0x117c07
     3c0:	d080                	sw	s0,32(s1)
     3c2:	06000003          	lb	zero,96(zero) # 60 <_heap_size+0x60>
     3c6:	5a01                	li	s4,-32
     3c8:	0305                	addi	t1,t1,1
     3ca:	1190                	addi	a2,sp,224
     3cc:	8000                	0x8000
     3ce:	0000                	unimp
     3d0:	0525                	addi	a0,a0,9
     3d2:	0000                	unimp
     3d4:	0200                	addi	s0,sp,256
     3d6:	0619                	addi	a2,a2,6
     3d8:	0170                	addi	a2,sp,140
     3da:	8000                	0x8000
     3dc:	0038                	addi	a4,sp,8
     3de:	0000                	unimp
     3e0:	9c01                	0x9c01
     3e2:	040d                	addi	s0,s0,3
     3e4:	0000                	unimp
     3e6:	7326                	flw	ft6,104(sp)
     3e8:	7274                	flw	fa3,100(a2)
     3ea:	0200                	addi	s0,sp,256
     3ec:	1219                	addi	tp,tp,-26
     3ee:	0000008b          	0x8b
     3f2:	003c                	addi	a5,sp,8
     3f4:	0000                	unimp
     3f6:	00019007          	0x19007
     3fa:	af80                	fsd	fs0,24(a5)
     3fc:	0004                	0x4
     3fe:	0c00                	addi	s0,sp,528
     400:	0442                	slli	s0,s0,0x10
     402:	0000                	unimp
     404:	1106                	slli	sp,sp,0x21
     406:	8080                	0x8080
     408:	8084                	0x8084
     40a:	007f                	0x7f
     40c:	1300                	addi	s0,sp,416
     40e:	0195                	addi	gp,gp,5
     410:	0000                	unimp
     412:	00042e23          	sw	zero,28(s0) # 3cc <_heap_size+0x3cc>
     416:	0d00                	addi	s0,sp,656
     418:	6572                	flw	fa0,28(sp)
     41a:	28230067          	jr	642(t1) # fffe6282 <_stack_start+0x7ffe46c2>
     41e:	042e                	slli	s0,s0,0xb
     420:	0000                	unimp
     422:	fa14                	fsw	fa3,48(a2)
     424:	0001                	nop
     426:	2300                	fld	fs0,0(a4)
     428:	333a                	fld	ft6,424(sp)
     42a:	0004                	0x4
     42c:	0000                	unimp
     42e:	3908                	fld	fa0,48(a0)
     430:	0001                	nop
     432:	0800                	addi	s0,sp,16
     434:	01be                	slli	gp,gp,0xf
     436:	0000                	unimp
     438:	00007b13          	andi	s6,zero,0
     43c:	1e00                	addi	s0,sp,816
     43e:	0459                	addi	s0,s0,22
     440:	0000                	unimp
     442:	720d                	lui	tp,0xfffe3
     444:	6765                	lui	a4,0x19
     446:	1e00                	addi	s0,sp,816
     448:	2e22                	fld	ft8,8(sp)
     44a:	0004                	0x4
     44c:	1400                	addi	s0,sp,544
     44e:	0031                	c.nop	12
     450:	0000                	unimp
     452:	301e                	fld	ft0,480(sp)
     454:	000000a3          	sb	zero,1(zero) # 1 <_heap_size+0x1>
     458:	2700                	fld	fs0,8(a4)
     45a:	0220                	addi	s0,sp,264
     45c:	0000                	unimp
     45e:	1701                	addi	a4,a4,-32
     460:	a311                	j	964 <_stack_size+0x164>
     462:	0000                	unimp
     464:	0100                	addi	s0,sp,128
     466:	0476                	slli	s0,s0,0x1d
     468:	0000                	unimp
     46a:	720d                	lui	tp,0xfffe3
     46c:	6765                	lui	a4,0x19
     46e:	1700                	addi	s0,sp,928
     470:	2e32                	fld	ft8,264(sp)
     472:	0004                	0x4
     474:	0000                	unimp
     476:	0d15                	addi	s10,s10,5
     478:	0004                	0x4
     47a:	1400                	addi	s0,sp,544
     47c:	0001                	nop
     47e:	1880                	addi	s0,sp,112
     480:	0000                	unimp
     482:	0100                	addi	s0,sp,128
     484:	969c                	0x969c
     486:	0004                	0x4
     488:	2800                	fld	fs0,16(s0)
     48a:	0422                	slli	s0,s0,0x8
     48c:	0000                	unimp
     48e:	5a01                	li	s4,-32
     490:	170e                	slli	a4,a4,0x23
     492:	0004                	0x4
     494:	0000                	unimp
     496:	5915                	li	s2,-27
     498:	0004                	0x4
     49a:	2c00                	fld	fs0,24(s0)
     49c:	0001                	nop
     49e:	1480                	addi	s0,sp,608
     4a0:	0000                	unimp
     4a2:	0100                	addi	s0,sp,128
     4a4:	af9c                	fsd	fa5,24(a5)
     4a6:	0004                	0x4
     4a8:	0e00                	addi	s0,sp,784
     4aa:	046a                	slli	s0,s0,0x1a
     4ac:	0000                	unimp
     4ae:	2900                	fld	fs0,16(a0)
     4b0:	0438                	addi	a4,sp,520
     4b2:	0000                	unimp
     4b4:	0140                	addi	s0,sp,132
     4b6:	8000                	0x8000
     4b8:	0030                	addi	a2,sp,8
     4ba:	0000                	unimp
     4bc:	9c01                	0x9c01
     4be:	4d2a                	lw	s10,136(sp)
     4c0:	0004                	0x4
     4c2:	5300                	lw	s0,32(a4)
     4c4:	0000                	unimp
     4c6:	0e00                	addi	s0,sp,784
     4c8:	0442                	slli	s0,s0,0x10
     4ca:	0000                	unimp
     4cc:	00015407          	0x15407
     4d0:	9680                	0x9680
     4d2:	0004                	0x4
     4d4:	0c00                	addi	s0,sp,528
     4d6:	046a                	slli	s0,s0,0x1a
     4d8:	0000                	unimp
     4da:	1106                	slli	sp,sp,0x21
     4dc:	8080                	0x8080
     4de:	8084                	0x8084
     4e0:	007f                	0x7f
     4e2:	0000                	unimp
     4e4:	0021                	c.nop	8
     4e6:	0000                	unimp
     4e8:	0005                	c.nop	1
     4ea:	0401                	addi	s0,s0,0
     4ec:	00000287          	0x287
     4f0:	db01                	beqz	a4,400 <_heap_size+0x400>
     4f2:	0004                	0x4
     4f4:	0000                	unimp
     4f6:	0000                	unimp
     4f8:	a480                	fsd	fs0,8(s1)
     4fa:	9302                	jalr	t1
     4fc:	0002                	c.slli64	zero
     4fe:	9f00                	0x9f00
     500:	0002                	c.slli64	zero
     502:	de00                	sw	s0,56(a2)
     504:	0002                	c.slli64	zero
     506:	0100                	addi	s0,sp,128
     508:	3a80                	fld	fs0,48(a3)
     50a:	05000003          	lb	zero,80(zero) # 50 <_heap_size+0x50>
     50e:	0100                	addi	s0,sp,128
     510:	9b04                	0x9b04
     512:	0002                	c.slli64	zero
     514:	0e00                	addi	s0,sp,784
     516:	00b5                	addi	ra,ra,13
     518:	0000                	unimp
     51a:	5c1d                	li	s8,-25
     51c:	0001                	nop
     51e:	1d00                	addi	s0,sp,688
     520:	0001                	nop
     522:	7400                	flw	fs0,40(s0)
     524:	0002                	c.slli64	zero
     526:	f480                	fsw	fs0,40(s1)
     528:	0001                	nop
     52a:	a300                	fsd	fs0,0(a4)
     52c:	0006                	c.slli	zero,0x1
     52e:	0f00                	addi	s0,sp,912
     530:	0504                	addi	s1,sp,640
     532:	6e69                	lui	t3,0x1a
     534:	0074                	addi	a3,sp,12
     536:	ea06                	fsw	ft1,20(sp)
     538:	0002                	c.slli64	zero
     53a:	0200                	addi	s0,sp,256
     53c:	17d1                	addi	a5,a5,-12
     53e:	0039                	c.nop	14
     540:	0000                	unimp
     542:	0402                	c.slli64	s0
     544:	00002407          	flw	fs0,0(zero) # 0 <_heap_size>
     548:	0200                	addi	s0,sp,256
     54a:	0508                	addi	a0,sp,640
     54c:	003e                	c.slli	zero,0xf
     54e:	0000                	unimp
     550:	1002                	c.slli	zero,0x20
     552:	7b04                	flw	fs1,48(a4)
     554:	0001                	nop
     556:	0200                	addi	s0,sp,256
     558:	0601                	addi	a2,a2,0
     55a:	01b6                	slli	gp,gp,0xd
     55c:	0000                	unimp
     55e:	0102                	c.slli64	sp
     560:	b408                	fsd	fa0,40(s0)
     562:	0001                	nop
     564:	0200                	addi	s0,sp,256
     566:	0502                	c.slli64	a0
     568:	01c2                	slli	gp,gp,0x10
     56a:	0000                	unimp
     56c:	0202                	c.slli64	tp
     56e:	00013507          	fld	fa0,0(sp)
     572:	0200                	addi	s0,sp,256
     574:	0504                	addi	s1,sp,640
     576:	00000043          	fmadd.s	ft0,ft0,ft0,ft0,rne
     57a:	00006a07          	0x6a07
     57e:	0200                	addi	s0,sp,256
     580:	0704                	addi	s1,sp,896
     582:	001f 0000 0802      	0x8020000001f
     588:	00001a07          	0x1a07
     58c:	0600                	addi	s0,sp,768
     58e:	02f1                	addi	t0,t0,28
     590:	0000                	unimp
     592:	391ae803          	0x391ae803
     596:	0000                	unimp
     598:	1000                	addi	s0,sp,32
     59a:	0804                	addi	s1,sp,16
     59c:	0090                	addi	a2,sp,64
     59e:	0000                	unimp
     5a0:	00009c03          	lh	s8,0(ra) # 368 <_heap_size+0x368>
     5a4:	0200                	addi	s0,sp,256
     5a6:	0801                	addi	a6,a6,0
     5a8:	01bd                	addi	gp,gp,15
     5aa:	0000                	unimp
     5ac:	00009c07          	0x9c07
     5b0:	0300                	addi	s0,sp,384
     5b2:	000000a3          	sb	zero,1(zero) # 1 <_heap_size+0x1>
     5b6:	f306                	fsw	ft1,164(sp)
     5b8:	0002                	c.slli64	zero
     5ba:	0400                	addi	s0,sp,512
     5bc:	1552                	slli	a0,a0,0x34
     5be:	0084                	addi	s1,sp,64
     5c0:	0000                	unimp
     5c2:	0000ad07          	flw	fs10,0(ra)
     5c6:	0900                	addi	s0,sp,144
     5c8:	0305                	addi	t1,t1,1
     5ca:	0000                	unimp
     5cc:	00260557          	0x260557
     5d0:	0000                	unimp
     5d2:	03f4                	addi	a3,sp,460
     5d4:	8000                	0x8000
     5d6:	0074                	addi	a3,sp,12
     5d8:	0000                	unimp
     5da:	9c01                	0x9c01
     5dc:	015c                	addi	a5,sp,132
     5de:	0000                	unimp
     5e0:	7304                	flw	fs1,32(a4)
     5e2:	0031                	c.nop	12
     5e4:	015c1957          	0x15c1957
     5e8:	0000                	unimp
     5ea:	0082                	c.slli64	ra
     5ec:	0000                	unimp
     5ee:	7304                	flw	fs1,32(a4)
     5f0:	0032                	c.slli	zero,0xc
     5f2:	015c2957          	0x15c2957
     5f6:	0000                	unimp
     5f8:	00b2                	slli	ra,ra,0xc
     5fa:	0000                	unimp
     5fc:	6e04                	flw	fs1,24(a2)
     5fe:	5700                	lw	s0,40(a4)
     600:	2d34                	fld	fa3,88(a0)
     602:	0000                	unimp
     604:	d700                	sw	s0,40(a4)
     606:	0000                	unimp
     608:	0a00                	addi	s0,sp,272
     60a:	0400                	addi	s0,sp,512
     60c:	8000                	0x8000
     60e:	0040                	addi	s0,sp,4
     610:	0000                	unimp
     612:	0139                	addi	sp,sp,14
     614:	0000                	unimp
     616:	7501                	lui	a0,0xfffe0
     618:	0031                	c.nop	12
     61a:	165a                	slli	a2,a2,0x36
     61c:	00000167          	jalr	sp,zero # 0 <_heap_size>
     620:	00f1                	addi	ra,ra,28
     622:	0000                	unimp
     624:	7501                	lui	a0,0xfffe0
     626:	0032                	c.slli	zero,0xc
     628:	0167165b          	0x167165b
     62c:	0000                	unimp
     62e:	0122                	slli	sp,sp,0x8
     630:	0000                	unimp
     632:	6501                	0x6501
     634:	646e                	flw	fs0,216(sp)
     636:	5c00                	lw	s0,56(s0)
     638:	6716                	flw	fa4,68(sp)
     63a:	0001                	nop
     63c:	2e00                	fld	fs0,24(a2)
     63e:	0001                	nop
     640:	0000                	unimp
     642:	9211                	srli	a2,a2,0x24
     644:	0000                	unimp
     646:	0100                	addi	s0,sp,128
     648:	69003163          	0x69003163
     64c:	00005513          	srli	a0,zero,0x0
     650:	3a00                	fld	fs0,48(a2)
     652:	0001                	nop
     654:	0100                	addi	s0,sp,128
     656:	6a003263          	0x6a003263
     65a:	00005513          	srli	a0,zero,0x0
     65e:	5100                	lw	s0,32(a0)
     660:	0001                	nop
     662:	0000                	unimp
     664:	0300                	addi	s0,sp,384
     666:	0166                	slli	sp,sp,0x19
     668:	0000                	unimp
     66a:	5c08                	lw	a0,56(s0)
     66c:	0001                	nop
     66e:	1200                	addi	s0,sp,288
     670:	0000b903          	0xb903
     674:	0900                	addi	s0,sp,144
     676:	02fd                	addi	t0,t0,31
     678:	0000                	unimp
     67a:	00900117          	auipc	sp,0x900
     67e:	0000                	unimp
     680:	0274                	addi	a3,sp,268
     682:	8000                	0x8000
     684:	0180                	addi	s0,sp,192
     686:	0000                	unimp
     688:	9c01                	0x9c01
     68a:	0328                	addi	a0,sp,392
     68c:	0000                	unimp
     68e:	6104                	flw	fs1,0(a0)
     690:	0061                	c.nop	24
     692:	00921a17          	auipc	s4,0x921
     696:	0000                	unimp
     698:	0168                	addi	a0,sp,140
     69a:	0000                	unimp
     69c:	6204                	flw	fs1,0(a2)
     69e:	0062                	c.slli	zero,0x18
     6a0:	01613517          	auipc	a0,0x1613
     6a4:	0000                	unimp
     6a6:	01c1                	addi	gp,gp,16
     6a8:	0000                	unimp
     6aa:	6e04                	flw	fs1,24(a2)
     6ac:	1700                	addi	s0,sp,928
     6ae:	2d40                	fld	fs0,152(a0)
     6b0:	0000                	unimp
     6b2:	0d00                	addi	s0,sp,656
     6b4:	0002                	c.slli64	zero
     6b6:	0100                	addi	s0,sp,128
     6b8:	0061                	c.nop	24
     6ba:	091f 0097 0000      	0x97091f
     6c0:	0259                	addi	tp,tp,22
     6c2:	0000                	unimp
     6c4:	6201                	0x6201
     6c6:	2000                	fld	fs0,0(s0)
     6c8:	0000a80f          	0xa80f
     6cc:	9c00                	0x9c00
     6ce:	0002                	c.slli64	zero
     6d0:	0100                	addi	s0,sp,128
     6d2:	6e65                	lui	t3,0x19
     6d4:	0064                	addi	s1,sp,12
     6d6:	0921                	addi	s2,s2,8
     6d8:	00000097          	auipc	ra,0x0
     6dc:	02df 0000 6d13      	0x6d13000002df
     6e2:	01006b73          	csrrsi	s6,0x10,0
     6e6:	0d22                	slli	s10,s10,0x8
     6e8:	00ad                	addi	ra,ra,11
     6ea:	0000                	unimp
     6ec:	03231403          	lh	s0,50(t1)
     6f0:	0000                	unimp
     6f2:	2601                	jal	9f2 <_stack_size+0x1f2>
     6f4:	a001                	j	6f4 <_heap_size+0x6f4>
     6f6:	01800003          	lb	zero,24(zero) # 18 <_heap_size+0x18>
     6fa:	616c                	flw	fa1,68(a0)
     6fc:	3100                	fld	fs0,32(a0)
     6fe:	2809                	jal	710 <_heap_size+0x710>
     700:	45000003          	lb	zero,1104(zero) # 450 <_heap_size+0x450>
     704:	01000003          	lb	zero,16(zero) # 10 <_heap_size+0x10>
     708:	626c                	flw	fa1,68(a2)
     70a:	3200                	fld	fs0,32(a2)
     70c:	00032d0f          	0x32d0f
     710:	7400                	flw	fs0,40(s0)
     712:	15000003          	lb	zero,336(zero) # 150 <_heap_size+0x150>
     716:	031e                	slli	t1,t1,0x7
     718:	0000                	unimp
     71a:	3301                	jal	41a <_heap_size+0x41a>
     71c:	2809                	jal	72e <_heap_size+0x72e>
     71e:	a5000003          	lb	zero,-1456(zero) # fffffa50 <_stack_start+0x7fffde90>
     722:	0b000003          	lb	zero,176(zero) # b0 <_heap_size+0xb0>
     726:	007f                	0x7f
     728:	0000                	unimp
     72a:	0259                	addi	tp,tp,22
     72c:	0000                	unimp
     72e:	740c                	flw	fa1,40(s0)
     730:	0074                	addi	a3,sp,12
     732:	0429                	addi	s0,s0,10
     734:	009c                	addi	a5,sp,64
     736:	0000                	unimp
     738:	c016                	sw	t0,0(sp)
     73a:	32800003          	lb	zero,808(zero) # 328 <_heap_size+0x328>
     73e:	48000003          	lb	zero,1152(zero) # 480 <_heap_size+0x480>
     742:	0002                	c.slli64	zero
     744:	0500                	addi	s0,sp,640
     746:	5b01                	li	s6,-32
     748:	7802                	flw	fa6,32(sp)
     74a:	0500                	addi	s0,sp,640
     74c:	5c01                	li	s8,-32
     74e:	3101                	jal	34e <_heap_size+0x34e>
     750:	0d00                	addi	s0,sp,656
     752:	03f0                	addi	a2,sp,460
     754:	8000                	0x8000
     756:	0332                	slli	t1,t1,0xc
     758:	0000                	unimp
     75a:	0105                	addi	sp,sp,1
     75c:	0078025b          	0x78025b
     760:	0000                	unimp
     762:	00005a0b          	0x5a0b
     766:	7100                	flw	fs0,32(a0)
     768:	0002                	c.slli64	zero
     76a:	0100                	addi	s0,sp,128
     76c:	7474                	flw	fa3,108(s0)
     76e:	2f00                	fld	fs0,24(a4)
     770:	00009c07          	0x9c07
     774:	cc00                	sw	s0,24(s0)
     776:	00000003          	lb	zero,0(zero) # 0 <_heap_size>
     77a:	480a                	lw	a6,128(sp)
     77c:	50800003          	lb	zero,1288(zero) # 508 <_heap_size+0x508>
     780:	0000                	unimp
     782:	fd00                	fsw	fs0,56(a0)
     784:	0002                	c.slli64	zero
     786:	0100                	addi	s0,sp,128
     788:	3062                	fld	ft0,56(sp)
     78a:	3900                	fld	fs0,48(a0)
     78c:	6a09                	lui	s4,0x2
     78e:	0000                	unimp
     790:	fd00                	fsw	fs0,56(a0)
     792:	01000003          	lb	zero,16(zero) # 10 <_heap_size+0x10>
     796:	3162                	fld	ft2,56(sp)
     798:	3a00                	fld	fs0,48(a2)
     79a:	6a09                	lui	s4,0x2
     79c:	0000                	unimp
     79e:	0900                	addi	s0,sp,144
     7a0:	0004                	0x4
     7a2:	0100                	addi	s0,sp,128
     7a4:	3262                	fld	ft4,56(sp)
     7a6:	3b00                	fld	fs0,48(a4)
     7a8:	6a09                	lui	s4,0x2
     7aa:	0000                	unimp
     7ac:	1500                	addi	s0,sp,672
     7ae:	0004                	0x4
     7b0:	0100                	addi	s0,sp,128
     7b2:	3362                	fld	ft6,56(sp)
     7b4:	3c00                	fld	fs0,56(s0)
     7b6:	6a09                	lui	s4,0x2
     7b8:	0000                	unimp
     7ba:	2100                	fld	fs0,0(a0)
     7bc:	0004                	0x4
     7be:	0100                	addi	s0,sp,128
     7c0:	3462                	fld	fs0,56(sp)
     7c2:	3d00                	fld	fs0,56(a0)
     7c4:	6a09                	lui	s4,0x2
     7c6:	0000                	unimp
     7c8:	2d00                	fld	fs0,24(a0)
     7ca:	0004                	0x4
     7cc:	0100                	addi	s0,sp,128
     7ce:	3562                	fld	fa0,56(sp)
     7d0:	3e00                	fld	fs0,56(a2)
     7d2:	6a09                	lui	s4,0x2
     7d4:	0000                	unimp
     7d6:	3900                	fld	fs0,48(a0)
     7d8:	0004                	0x4
     7da:	0100                	addi	s0,sp,128
     7dc:	3662                	fld	fa2,56(sp)
     7de:	3f00                	fld	fs0,56(a4)
     7e0:	6a09                	lui	s4,0x2
     7e2:	0000                	unimp
     7e4:	4500                	lw	s0,8(a0)
     7e6:	0004                	0x4
     7e8:	0100                	addi	s0,sp,128
     7ea:	3762                	fld	fa4,56(sp)
     7ec:	4000                	lw	s0,0(s0)
     7ee:	6a09                	lui	s4,0x2
     7f0:	0000                	unimp
     7f2:	5100                	lw	s0,32(a0)
     7f4:	0004                	0x4
     7f6:	0100                	addi	s0,sp,128
     7f8:	3862                	fld	fa6,56(sp)
     7fa:	4100                	lw	s0,0(a0)
     7fc:	6a09                	lui	s4,0x2
     7fe:	0000                	unimp
     800:	5d00                	lw	s0,56(a0)
     802:	0004                	0x4
     804:	0000                	unimp
     806:	0002c817          	auipc	a6,0x2c
     80a:	2880                	fld	fs0,16(s1)
     80c:	0000                	unimp
     80e:	0c00                	addi	s0,sp,528
     810:	7474                	flw	fa3,108(s0)
     812:	4f00                	lw	s0,24(a4)
     814:	6a05                	lui	s4,0x1
     816:	0000                	unimp
     818:	0d00                	addi	s0,sp,656
     81a:	02e8                	addi	a0,sp,332
     81c:	8000                	0x8000
     81e:	0332                	slli	t1,t1,0xc
     820:	0000                	unimp
     822:	0105                	addi	sp,sp,1
     824:	0078025b          	0x78025b
     828:	0105                	addi	sp,sp,1
     82a:	025c                	addi	a5,sp,260
     82c:	0079                	c.nop	30
     82e:	0000                	unimp
     830:	0300                	addi	s0,sp,384
     832:	006a                	c.slli	zero,0x1a
     834:	0000                	unimp
     836:	00007103          	0x7103
     83a:	1800                	addi	s0,sp,48
     83c:	00000317          	auipc	t1,0x0
     840:	030d                	addi	t1,t1,3
     842:	0000                	unimp
     844:	0005                	c.nop	1
     846:	8200                	0x8200
     848:	0009                	c.nop	2
     84a:	0500                	addi	s0,sp,640
     84c:	0100                	addi	s0,sp,128
     84e:	cd04                	sw	s1,24(a0)
     850:	1a000003          	lb	zero,416(zero) # 1a0 <_heap_size+0x1a0>
     854:	00b5                	addi	ra,ra,13
     856:	0000                	unimp
     858:	191d                	addi	s2,s2,-25
     85a:	0002                	c.slli64	zero
     85c:	1100                	addi	s0,sp,160
     85e:	0000                	unimp
     860:	6800                	flw	fs0,16(s0)
     862:	0004                	0x4
     864:	9480                	0x9480
     866:	7200000b          	0x7200000b
     86a:	000a                	c.slli	zero,0x2
     86c:	0400                	addi	s0,sp,512
     86e:	0601                	addi	a2,a2,0
     870:	01b6                	slli	gp,gp,0xd
     872:	0000                	unimp
     874:	6c06                	flw	fs8,64(sp)
     876:	02000003          	lb	zero,32(zero) # 20 <_heap_size+0x20>
     87a:	0039182b          	0x39182b
     87e:	0000                	unimp
     880:	0104                	addi	s1,sp,128
     882:	b408                	fsd	fa0,40(s0)
     884:	0001                	nop
     886:	0400                	addi	s0,sp,512
     888:	0502                	c.slli64	a0
     88a:	01c2                	slli	gp,gp,0x10
     88c:	0000                	unimp
     88e:	0204                	addi	s1,sp,256
     890:	00013507          	fld	fa0,0(sp) # 90067a <_stack_size+0x8ffe7a>
     894:	0400                	addi	s0,sp,512
     896:	0504                	addi	s1,sp,640
     898:	00000043          	fmadd.s	ft0,ft0,ft0,ft0,rne
     89c:	8606                	mv	a2,ra
     89e:	0000                	unimp
     8a0:	0200                	addi	s0,sp,256
     8a2:	0061194f          	fnmadd.s	fs2,ft2,ft6,ft0,rtz
     8a6:	0000                	unimp
     8a8:	0404                	addi	s1,sp,512
     8aa:	00001f07          	0x1f07
     8ae:	0400                	addi	s0,sp,512
     8b0:	0508                	addi	a0,sp,640
     8b2:	003e                	c.slli	zero,0xf
     8b4:	0000                	unimp
     8b6:	0804                	addi	s1,sp,16
     8b8:	00001a07          	0x1a07
     8bc:	1b00                	addi	s0,sp,432
     8be:	0504                	addi	s1,sp,640
     8c0:	6e69                	lui	t3,0x1a
     8c2:	0074                	addi	a3,sp,12
     8c4:	0404                	addi	s1,sp,512
     8c6:	00002407          	flw	fs0,0(zero) # 0 <_heap_size>
     8ca:	0600                	addi	s0,sp,768
     8cc:	036e                	slli	t1,t1,0x1b
     8ce:	0000                	unimp
     8d0:	2d131803          	lh	a6,721(t1) # b0d <_stack_size+0x30d>
     8d4:	0000                	unimp
     8d6:	0c00                	addi	s0,sp,528
     8d8:	0084                	addi	s1,sp,64
     8da:	0000                	unimp
     8dc:	8806                	mv	a6,ra
     8de:	0000                	unimp
     8e0:	0300                	addi	s0,sp,384
     8e2:	1430                	addi	a2,sp,552
     8e4:	0055                	c.nop	21
     8e6:	0000                	unimp
     8e8:	951c                	0x951c
     8ea:	0000                	unimp
     8ec:	1d00                	addi	s0,sp,688
     8ee:	0329                	addi	t1,t1,10
     8f0:	0000                	unimp
     8f2:	04b0                	addi	a2,sp,584
     8f4:	0822                	slli	a6,a6,0x8
     8f6:	00c1                	addi	ra,ra,16
     8f8:	0000                	unimp
     8fa:	870d                	srai	a4,a4,0x3
     8fc:	04000003          	lb	zero,64(zero) # 40 <_heap_size+0x40>
     900:	0b24                	addi	s1,sp,408
     902:	00c6                	slli	ra,ra,0x11
     904:	0000                	unimp
     906:	0000                	unimp
     908:	a60c                	fsd	fa1,8(a2)
     90a:	0000                	unimp
     90c:	0e00                	addi	s0,sp,784
     90e:	0084                	addi	s1,sp,64
     910:	0000                	unimp
     912:	00d6                	slli	ra,ra,0x15
     914:	0000                	unimp
     916:	00007d07          	0x7d07
     91a:	af00                	fsd	fs0,24(a4)
     91c:	1e00                	addi	s0,sp,816
     91e:	050c                	addi	a1,sp,640
     920:	0905                	addi	s2,s2,1
     922:	00000107          	0x107
     926:	ae0d                	j	c58 <_stack_size+0x458>
     928:	0001                	nop
     92a:	0500                	addi	s0,sp,640
     92c:	00a11507          	0xa11507
     930:	0000                	unimp
     932:	0d00                	addi	s0,sp,656
     934:	000000a7          	0xa7
     938:	0805                	addi	a6,a6,1
     93a:	a115                	j	d5e <_stack_size+0x55e>
     93c:	0000                	unimp
     93e:	0400                	addi	s0,sp,512
     940:	990d                	andi	a0,a0,-29
     942:	0000                	unimp
     944:	0500                	addi	s0,sp,640
     946:	1509                	addi	a0,a0,-30
     948:	00a1                	addi	ra,ra,8
     94a:	0000                	unimp
     94c:	0008                	0x8
     94e:	8706                	mv	a4,ra
     950:	0001                	nop
     952:	0500                	addi	s0,sp,640
     954:	030a                	slli	t1,t1,0x2
     956:	00d6                	slli	ra,ra,0x15
     958:	0000                	unimp
     95a:	6406                	flw	fs0,64(sp)
     95c:	01000003          	lb	zero,16(zero) # 10 <_heap_size+0x10>
     960:	110e                	slli	sp,sp,0x23
     962:	011f 0000 840e      	0x840e0000011f
     968:	0000                	unimp
     96a:	3500                	fld	fs0,40(a0)
     96c:	0001                	nop
     96e:	0700                	addi	s0,sp,896
     970:	007d                	c.nop	31
     972:	0000                	unimp
     974:	007d0703          	lb	a4,7(s10)
     978:	0000                	unimp
     97a:	900e0003          	lb	zero,-1792(t3) # 19900 <_stack_size+0x19100>
     97e:	0000                	unimp
     980:	4500                	lw	s0,8(a0)
     982:	0001                	nop
     984:	0700                	addi	s0,sp,896
     986:	007d                	c.nop	31
     988:	0000                	unimp
     98a:	00ff                	0xff
     98c:	350c                	fld	fa1,40(a0)
     98e:	0001                	nop
     990:	1300                	addi	s0,sp,416
     992:	0349                	addi	t1,t1,18
     994:	0000                	unimp
     996:	4515                	li	a0,5
     998:	0001                	nop
     99a:	0500                	addi	s0,sp,640
     99c:	00119c03          	lh	s8,1(gp) # 80001ba9 <__global_pointer$+0x1>
     9a0:	1380                	addi	s0,sp,480
     9a2:	0348                	addi	a0,sp,388
     9a4:	0000                	unimp
     9a6:	4528                	lw	a0,72(a0)
     9a8:	0001                	nop
     9aa:	0500                	addi	s0,sp,640
     9ac:	0012a803          	lw	a6,1(t0) # 4ed00331 <_stack_size+0x4ecffb31>
     9b0:	0e80                	addi	s0,sp,848
     9b2:	0090                	addi	a2,sp,64
     9b4:	0000                	unimp
     9b6:	017a                	slli	sp,sp,0x1e
     9b8:	0000                	unimp
     9ba:	00007d07          	0x7d07
     9be:	0a00                	addi	s0,sp,272
     9c0:	0c00                	addi	s0,sp,528
     9c2:	016a                	slli	sp,sp,0x1a
     9c4:	0000                	unimp
     9c6:	00039613          	slli	a2,t2,0x0
     9ca:	3c00                	fld	fs0,56(s0)
     9cc:	017a                	slli	sp,sp,0x1e
     9ce:	0000                	unimp
     9d0:	0305                	addi	t1,t1,1
     9d2:	129c                	addi	a5,sp,352
     9d4:	8000                	0x8000
     9d6:	00034e17          	auipc	t3,0x34
     9da:	9b00                	0x9b00
     9dc:	ec01                	bnez	s0,9f4 <_stack_size+0x1f4>
     9de:	1080000f          	0x1080000f
     9e2:	0000                	unimp
     9e4:	0100                	addi	s0,sp,128
     9e6:	dd9c                	sw	a5,56(a1)
     9e8:	0001                	nop
     9ea:	0f00                	addi	s0,sp,912
     9ec:	00787463          	bgeu	a6,t2,9f4 <_stack_size+0x1f4>
     9f0:	dd2c019b          	0xdd2c019b
     9f4:	0001                	nop
     9f6:	7600                	flw	fs0,40(a2)
     9f8:	0004                	0x4
     9fa:	0f00                	addi	s0,sp,912
     9fc:	7562                	flw	fa0,56(sp)
     9fe:	0066                	c.slli	zero,0x19
     a00:	e23a019b          	0xe23a019b
     a04:	0001                	nop
     a06:	9b00                	0x9b00
     a08:	0004                	0x4
     a0a:	1000                	addi	s0,sp,32
     a0c:	0ffc                	addi	a5,sp,988
     a0e:	8000                	0x8000
     a10:	0235                	addi	tp,tp,13
     a12:	0000                	unimp
     a14:	0101                	addi	sp,sp,0
     a16:	035a                	slli	t1,t1,0x16
     a18:	015b01a3          	sb	s5,3(s6) # fe04339b <_stack_start+0x7e0417db>
     a1c:	5b01                	li	s6,-32
     a1e:	5a01a303          	lw	t1,1440(gp) # 80002148 <_stack_start+0x588>
     a22:	0000                	unimp
     a24:	c108                	sw	a0,0(a0)
     a26:	0000                	unimp
     a28:	0800                	addi	s0,sp,16
     a2a:	0084                	addi	s1,sp,64
     a2c:	0000                	unimp
     a2e:	00039b17          	auipc	s6,0x39
     a32:	9500                	0x9500
     a34:	dc01                	beqz	s0,94c <_stack_size+0x14c>
     a36:	1080000f          	0x1080000f
     a3a:	0000                	unimp
     a3c:	0100                	addi	s0,sp,128
     a3e:	359c                	fld	fa5,40(a1)
     a40:	0002                	c.slli64	zero
     a42:	0f00                	addi	s0,sp,912
     a44:	00787463          	bgeu	a6,t2,a4c <_stack_size+0x24c>
     a48:	0195                	addi	gp,gp,5
     a4a:	dd2c                	sw	a1,120(a0)
     a4c:	0001                	nop
     a4e:	c000                	sw	s0,0(s0)
     a50:	0004                	0x4
     a52:	0f00                	addi	s0,sp,912
     a54:	7562                	flw	fa0,56(sp)
     a56:	0066                	c.slli	zero,0x19
     a58:	0195                	addi	gp,gp,5
     a5a:	e23a                	fsw	fa4,4(sp)
     a5c:	0001                	nop
     a5e:	e500                	fsw	fs0,8(a0)
     a60:	0004                	0x4
     a62:	1000                	addi	s0,sp,32
     a64:	0fec                	addi	a1,sp,988
     a66:	8000                	0x8000
     a68:	0344                	addi	s1,sp,388
     a6a:	0000                	unimp
     a6c:	0101                	addi	sp,sp,0
     a6e:	035a                	slli	t1,t1,0x16
     a70:	015b01a3          	sb	s5,3(s6) # 39a31 <_stack_size+0x39231>
     a74:	5b01                	li	s6,-32
     a76:	5a01a303          	lw	t1,1440(gp) # 80002148 <_stack_start+0x588>
     a7a:	0000                	unimp
     a7c:	c509                	beqz	a0,a86 <_stack_size+0x286>
     a7e:	78000003          	lb	zero,1920(zero) # 780 <_heap_size+0x780>
     a82:	4001                	c.li	zero,0
     a84:	9880000f          	0x9880000f
     a88:	0000                	unimp
     a8a:	0100                	addi	s0,sp,128
     a8c:	3a9c                	fld	fa5,48(a3)
     a8e:	0a000003          	lb	zero,160(zero) # a0 <_heap_size+0xa0>
     a92:	033d                	addi	t1,t1,15
     a94:	0000                	unimp
     a96:	0178                	addi	a4,sp,140
     a98:	3a20                	fld	fs0,112(a2)
     a9a:	0a000003          	lb	zero,160(zero) # a0 <_heap_size+0xa0>
     a9e:	0005                	c.nop	1
     aa0:	0a00                	addi	s0,sp,272
     aa2:	00000387          	0x387
     aa6:	0178                	addi	a4,sp,140
     aa8:	3f36                	fld	ft10,360(sp)
     aaa:	3a000003          	lb	zero,928(zero) # 3a0 <_heap_size+0x3a0>
     aae:	0005                	c.nop	1
     ab0:	1400                	addi	s0,sp,544
     ab2:	0390                	addi	a2,sp,448
     ab4:	0000                	unimp
     ab6:	017a                	slli	sp,sp,0x1e
     ab8:	0084                	addi	s1,sp,64
     aba:	0000                	unimp
     abc:	0575                	addi	a0,a0,29
     abe:	0000                	unimp
     ac0:	7002                	flw	ft0,32(sp)
     ac2:	6280000f          	0x6280000f
     ac6:	0008                	0x8
     ac8:	9800                	0x9800
     aca:	0002                	c.slli64	zero
     acc:	0100                	addi	s0,sp,128
     ace:	5a01                	li	s4,-32
     ad0:	3a01                	jal	3e0 <_heap_size+0x3e0>
     ad2:	0101                	addi	sp,sp,0
     ad4:	0079025b          	0x79025b
     ad8:	0101                	addi	sp,sp,0
     ada:	025c                	addi	a5,sp,260
     adc:	0082                	c.slli64	ra
     ade:	0200                	addi	s0,sp,256
     ae0:	0f78                	addi	a4,sp,924
     ae2:	8000                	0x8000
     ae4:	0442                	slli	s0,s0,0x10
     ae6:	0000                	unimp
     ae8:	02ac                	addi	a1,sp,328
     aea:	0000                	unimp
     aec:	0101                	addi	sp,sp,0
     aee:	025a                	slli	tp,tp,0x16
     af0:	0079                	c.nop	30
     af2:	0200                	addi	s0,sp,256
     af4:	0f80                	addi	s0,sp,976
     af6:	8000                	0x8000
     af8:	0475                	addi	s0,s0,29
     afa:	0000                	unimp
     afc:	02c0                	addi	s0,sp,324
     afe:	0000                	unimp
     b00:	0101                	addi	sp,sp,0
     b02:	025a                	slli	tp,tp,0x16
     b04:	0079                	c.nop	30
     b06:	0200                	addi	s0,sp,256
     b08:	0f90                	addi	a2,sp,976
     b0a:	8000                	0x8000
     b0c:	0862                	slli	a6,a6,0x18
     b0e:	0000                	unimp
     b10:	02e0                	addi	s0,sp,332
     b12:	0000                	unimp
     b14:	0101                	addi	sp,sp,0
     b16:	025a                	slli	tp,tp,0x16
     b18:	0078                	addi	a4,sp,12
     b1a:	0101                	addi	sp,sp,0
     b1c:	0079025b          	0x79025b
     b20:	0101                	addi	sp,sp,0
     b22:	025c                	addi	a5,sp,260
     b24:	0082                	c.slli64	ra
     b26:	0200                	addi	s0,sp,256
     b28:	0fa0                	addi	s0,sp,984
     b2a:	8000                	0x8000
     b2c:	04b5                	addi	s1,s1,13
     b2e:	0000                	unimp
     b30:	02f4                	addi	a3,sp,332
     b32:	0000                	unimp
     b34:	0101                	addi	sp,sp,0
     b36:	025a                	slli	tp,tp,0x16
     b38:	0079                	c.nop	30
     b3a:	0200                	addi	s0,sp,256
     b3c:	0fac                	addi	a1,sp,984
     b3e:	8000                	0x8000
     b40:	0442                	slli	s0,s0,0x10
     b42:	0000                	unimp
     b44:	0308                	addi	a0,sp,384
     b46:	0000                	unimp
     b48:	0101                	addi	sp,sp,0
     b4a:	025a                	slli	tp,tp,0x16
     b4c:	0079                	c.nop	30
     b4e:	0200                	addi	s0,sp,256
     b50:	0fb4                	addi	a3,sp,984
     b52:	8000                	0x8000
     b54:	0475                	addi	s0,s0,29
     b56:	0000                	unimp
     b58:	031c                	addi	a5,sp,384
     b5a:	0000                	unimp
     b5c:	0101                	addi	sp,sp,0
     b5e:	025a                	slli	tp,tp,0x16
     b60:	0079                	c.nop	30
     b62:	1000                	addi	s0,sp,32
     b64:	0fd8                	addi	a4,sp,980
     b66:	8000                	0x8000
     b68:	0862                	slli	a6,a6,0x18
     b6a:	0000                	unimp
     b6c:	0101                	addi	sp,sp,0
     b6e:	015a                	slli	sp,sp,0x16
     b70:	0130                	addi	a2,sp,136
     b72:	5b01                	li	s6,-32
     b74:	5a01a303          	lw	t1,1440(gp) # 80002148 <_stack_start+0x588>
     b78:	0101                	addi	sp,sp,0
     b7a:	035c                	addi	a5,sp,388
     b7c:	005b01a3          	sb	t0,3(s6)
     b80:	0800                	addi	s0,sp,16
     b82:	00000113          	li	sp,0
     b86:	9008                	0x9008
     b88:	0000                	unimp
     b8a:	0900                	addi	s0,sp,144
     b8c:	03c8                	addi	a0,sp,452
     b8e:	0000                	unimp
     b90:	014a                	slli	sp,sp,0x12
     b92:	0e80                	addi	s0,sp,848
     b94:	8000                	0x8000
     b96:	00c0                	addi	s0,sp,68
     b98:	0000                	unimp
     b9a:	9c01                	0x9c01
     b9c:	0442                	slli	s0,s0,0x10
     b9e:	0000                	unimp
     ba0:	3d0a                	fld	fs10,160(sp)
     ba2:	4a000003          	lb	zero,1184(zero) # 4a0 <_heap_size+0x4a0>
     ba6:	1d01                	addi	s10,s10,-32
     ba8:	033a                	slli	t1,t1,0xe
     baa:	0000                	unimp
     bac:	0598                	addi	a4,sp,704
     bae:	0000                	unimp
     bb0:	870a                	mv	a4,sp
     bb2:	4a000003          	lb	zero,1184(zero) # 4a0 <_heap_size+0x4a0>
     bb6:	3301                	jal	8b6 <_stack_size+0xb6>
     bb8:	0000033f 000005bd 	0x5bd0000033f
     bc0:	9014                	0x9014
     bc2:	4c000003          	lb	zero,1216(zero) # 4c0 <_heap_size+0x4c0>
     bc6:	8401                	c.srai64	s0
     bc8:	0000                	unimp
     bca:	ed00                	fsw	fs0,24(a0)
     bcc:	0005                	c.nop	1
     bce:	0200                	addi	s0,sp,256
     bd0:	0ec0                	addi	s0,sp,852
     bd2:	8000                	0x8000
     bd4:	0862                	slli	a6,a6,0x18
     bd6:	0000                	unimp
     bd8:	000003a7          	0x3a7
     bdc:	0101                	addi	sp,sp,0
     bde:	015a                	slli	sp,sp,0x16
     be0:	0130                	addi	a2,sp,136
     be2:	5b01                	li	s6,-32
     be4:	7902                	flw	fs2,32(sp)
     be6:	0100                	addi	s0,sp,128
     be8:	5c01                	li	s8,-32
     bea:	8202                	jr	tp
     bec:	0000                	unimp
     bee:	d002                	sw	zero,32(sp)
     bf0:	000e                	c.slli	zero,0x3
     bf2:	2680                	fld	fs0,8(a3)
     bf4:	0008                	0x8
     bf6:	bb00                	fsd	fs0,48(a4)
     bf8:	01000003          	lb	zero,16(zero) # 10 <_heap_size+0x10>
     bfc:	5a01                	li	s4,-32
     bfe:	7902                	flw	fs2,32(sp)
     c00:	0000                	unimp
     c02:	d802                	sw	zero,48(sp)
     c04:	000e                	c.slli	zero,0x3
     c06:	f680                	fsw	fs0,40(a3)
     c08:	cf000007          	0xcf000007
     c0c:	01000003          	lb	zero,16(zero) # 10 <_heap_size+0x10>
     c10:	5a01                	li	s4,-32
     c12:	7902                	flw	fs2,32(sp)
     c14:	0000                	unimp
     c16:	e002                	fsw	ft0,0(sp)
     c18:	000e                	c.slli	zero,0x3
     c1a:	1380                	addi	s0,sp,480
     c1c:	0006                	c.slli	zero,0x1
     c1e:	e300                	fsw	fs0,0(a4)
     c20:	01000003          	lb	zero,16(zero) # 10 <_heap_size+0x10>
     c24:	5a01                	li	s4,-32
     c26:	7902                	flw	fs2,32(sp)
     c28:	0000                	unimp
     c2a:	f802                	fsw	ft0,48(sp)
     c2c:	000e                	c.slli	zero,0x3
     c2e:	6280                	flw	fs0,0(a3)
     c30:	0008                	0x8
     c32:	fd00                	fsw	fs0,56(a0)
     c34:	01000003          	lb	zero,16(zero) # 10 <_heap_size+0x10>
     c38:	5b01                	li	s6,-32
     c3a:	7902                	flw	fs2,32(sp)
     c3c:	0100                	addi	s0,sp,128
     c3e:	5c01                	li	s8,-32
     c40:	8202                	jr	tp
     c42:	0000                	unimp
     c44:	0402                	c.slli64	s0
     c46:	2680000f          	0x2680000f
     c4a:	0008                	0x8
     c4c:	1100                	addi	s0,sp,160
     c4e:	0004                	0x4
     c50:	0100                	addi	s0,sp,128
     c52:	5a01                	li	s4,-32
     c54:	7902                	flw	fs2,32(sp)
     c56:	0000                	unimp
     c58:	0c02                	c.slli64	s8
     c5a:	f680000f          	0xf680000f
     c5e:	25000007          	0x25000007
     c62:	0004                	0x4
     c64:	0100                	addi	s0,sp,128
     c66:	5a01                	li	s4,-32
     c68:	7902                	flw	fs2,32(sp)
     c6a:	0000                	unimp
     c6c:	1c15                	addi	s8,s8,-27
     c6e:	6280000f          	0x6280000f
     c72:	0008                	0x8
     c74:	0100                	addi	s0,sp,128
     c76:	5a01                	li	s4,-32
     c78:	8302                	jr	t1
     c7a:	0100                	addi	s0,sp,128
     c7c:	5b01                	li	s6,-32
     c7e:	7902                	flw	fs2,32(sp)
     c80:	0100                	addi	s0,sp,128
     c82:	5c01                	li	s8,-32
     c84:	8202                	jr	tp
     c86:	0000                	unimp
     c88:	0900                	addi	s0,sp,144
     c8a:	000003ab          	0x3ab
     c8e:	012d                	addi	sp,sp,11
     c90:	0e1c                	addi	a5,sp,784
     c92:	8000                	0x8000
     c94:	0064                	addi	s1,sp,12
     c96:	0000                	unimp
     c98:	9c01                	0x9c01
     c9a:	0475                	addi	s0,s0,29
     c9c:	0000                	unimp
     c9e:	3d18                	fld	fa4,56(a0)
     ca0:	2d000003          	lb	zero,720(zero) # 2d0 <_heap_size+0x2d0>
     ca4:	2301                	jal	11a4 <_stack_size+0x9a4>
     ca6:	033a                	slli	t1,t1,0xe
     ca8:	0000                	unimp
     caa:	5a01                	li	s4,-32
     cac:	4314                	lw	a3,0(a4)
     cae:	2f000003          	lb	zero,752(zero) # 2f0 <_heap_size+0x2f0>
     cb2:	8401                	c.srai64	s0
     cb4:	0000                	unimp
     cb6:	1c00                	addi	s0,sp,560
     cb8:	0006                	c.slli	zero,0x1
     cba:	0000                	unimp
     cbc:	cf09                	beqz	a4,cd6 <_stack_size+0x4d6>
     cbe:	21000003          	lb	zero,528(zero) # 210 <_heap_size+0x210>
     cc2:	1001                	c.nop	-32
     cc4:	000d                	c.nop	3
     cc6:	0c80                	addi	s0,sp,592
     cc8:	0001                	nop
     cca:	0100                	addi	s0,sp,128
     ccc:	b59c                	fsd	fa5,40(a1)
     cce:	0004                	0x4
     cd0:	1800                	addi	s0,sp,48
     cd2:	033d                	addi	t1,t1,15
     cd4:	0000                	unimp
     cd6:	0121                	addi	sp,sp,8
     cd8:	3a22                	fld	fs4,40(sp)
     cda:	01000003          	lb	zero,16(zero) # 10 <_heap_size+0x10>
     cde:	055a                	slli	a0,a0,0x16
     ce0:	0069                	c.nop	26
     ce2:	840b0123          	sb	zero,-1982(s6)
     ce6:	0000                	unimp
     ce8:	7900                	flw	fs0,48(a0)
     cea:	0006                	c.slli	zero,0x1
     cec:	0500                	addi	s0,sp,640
     cee:	006a                	c.slli	zero,0x1a
     cf0:	840e0123          	sb	zero,-1982(t3) # 34218 <_stack_size+0x33a18>
     cf4:	0000                	unimp
     cf6:	b600                	fsd	fs0,40(a2)
     cf8:	0006                	c.slli	zero,0x1
     cfa:	0000                	unimp
     cfc:	7609                	lui	a2,0xfffe2
     cfe:	0c000003          	lb	zero,192(zero) # c0 <_heap_size+0xc0>
     d02:	4001                	c.li	zero,0
     d04:	d080000b          	0xd080000b
     d08:	0001                	nop
     d0a:	0100                	addi	s0,sp,128
     d0c:	139c                	addi	a5,sp,480
     d0e:	0006                	c.slli	zero,0x1
     d10:	0a00                	addi	s0,sp,272
     d12:	033d                	addi	t1,t1,15
     d14:	0000                	unimp
     d16:	010c                	addi	a1,sp,128
     d18:	3a24                	fld	fs1,112(a2)
     d1a:	53000003          	lb	zero,1328(zero) # 530 <_heap_size+0x530>
     d1e:	05000007          	0x5000007
     d22:	0069                	c.nop	26
     d24:	010e                	slli	sp,sp,0x3
     d26:	00007607          	0x7607
     d2a:	8100                	0x8100
     d2c:	05000007          	0x5000007
     d30:	0061                	c.nop	24
     d32:	840b010f          	0x840b010f
     d36:	0000                	unimp
     d38:	8e00                	0x8e00
     d3a:	05000007          	0x5000007
     d3e:	0062                	c.slli	zero,0x18
     d40:	840e010f          	0x840e010f
     d44:	0000                	unimp
     d46:	9a00                	0x9a00
     d48:	05000007          	0x5000007
     d4c:	010f0063          	beq	t5,a6,d4c <_stack_size+0x54c>
     d50:	8411                	srai	s0,s0,0x4
     d52:	0000                	unimp
     d54:	a600                	fsd	fs0,8(a2)
     d56:	05000007          	0x5000007
     d5a:	0064                	addi	s1,sp,12
     d5c:	8414010f          	0x8414010f
     d60:	0000                	unimp
     d62:	b200                	fsd	fs0,32(a2)
     d64:	02000007          	0x2000007
     d68:	0b98                	addi	a4,sp,464
     d6a:	8000                	0x8000
     d6c:	07ce                	slli	a5,a5,0x13
     d6e:	0000                	unimp
     d70:	0534                	addi	a3,sp,648
     d72:	0000                	unimp
     d74:	0101                	addi	sp,sp,0
     d76:	025a                	slli	tp,tp,0x16
     d78:	008a                	slli	ra,ra,0x2
     d7a:	0200                	addi	s0,sp,256
     d7c:	0ba0                	addi	s0,sp,472
     d7e:	8000                	0x8000
     d80:	07ce                	slli	a5,a5,0x13
     d82:	0000                	unimp
     d84:	0000054b          	fnmsub.s	fa0,ft0,ft0,ft0,rne
     d88:	0101                	addi	sp,sp,0
     d8a:	055a                	slli	a0,a0,0x16
     d8c:	b891                	j	5e0 <_heap_size+0x5e0>
     d8e:	947f                	0x947f
     d90:	0001                	nop
     d92:	a802                	fsd	ft0,16(sp)
     d94:	ce80000b          	0xce80000b
     d98:	5f000007          	0x5f000007
     d9c:	0005                	c.nop	1
     d9e:	0100                	addi	s0,sp,128
     da0:	5a01                	li	s4,-32
     da2:	8302                	jr	t1
     da4:	0000                	unimp
     da6:	b802                	fsd	ft0,48(sp)
     da8:	ce80000b          	0xce80000b
     dac:	73000007          	0x73000007
     db0:	0005                	c.nop	1
     db2:	0100                	addi	s0,sp,128
     db4:	5a01                	li	s4,-32
     db6:	8902                	jr	s2
     db8:	0000                	unimp
     dba:	c002                	sw	zero,0(sp)
     dbc:	ce80000b          	0xce80000b
     dc0:	8a000007          	0x8a000007
     dc4:	0005                	c.nop	1
     dc6:	0100                	addi	s0,sp,128
     dc8:	5a01                	li	s4,-32
     dca:	9105                	srli	a0,a0,0x21
     dcc:	7fb0                	flw	fa2,120(a5)
     dce:	0194                	addi	a3,sp,192
     dd0:	0200                	addi	s0,sp,256
     dd2:	0bc8                	addi	a0,sp,468
     dd4:	8000                	0x8000
     dd6:	07ce                	slli	a5,a5,0x13
     dd8:	0000                	unimp
     dda:	059e                	slli	a1,a1,0x7
     ddc:	0000                	unimp
     dde:	0101                	addi	sp,sp,0
     de0:	025a                	slli	tp,tp,0x16
     de2:	0085                	addi	ra,ra,1
     de4:	0200                	addi	s0,sp,256
     de6:	0bdc                	addi	a5,sp,468
     de8:	8000                	0x8000
     dea:	07ce                	slli	a5,a5,0x13
     dec:	0000                	unimp
     dee:	05b2                	slli	a1,a1,0xc
     df0:	0000                	unimp
     df2:	0101                	addi	sp,sp,0
     df4:	025a                	slli	tp,tp,0x16
     df6:	02000087          	0x2000087
     dfa:	0be4                	addi	s1,sp,476
     dfc:	8000                	0x8000
     dfe:	07ce                	slli	a5,a5,0x13
     e00:	0000                	unimp
     e02:	05c6                	slli	a1,a1,0x11
     e04:	0000                	unimp
     e06:	0101                	addi	sp,sp,0
     e08:	025a                	slli	tp,tp,0x16
     e0a:	0078                	addi	a4,sp,12
     e0c:	0200                	addi	s0,sp,256
     e0e:	0bec                	addi	a1,sp,476
     e10:	8000                	0x8000
     e12:	07ce                	slli	a5,a5,0x13
     e14:	0000                	unimp
     e16:	05da                	slli	a1,a1,0x16
     e18:	0000                	unimp
     e1a:	0101                	addi	sp,sp,0
     e1c:	025a                	slli	tp,tp,0x16
     e1e:	0082                	c.slli64	ra
     e20:	0200                	addi	s0,sp,256
     e22:	0bf8                	addi	a4,sp,476
     e24:	8000                	0x8000
     e26:	07ce                	slli	a5,a5,0x13
     e28:	0000                	unimp
     e2a:	05ee                	slli	a1,a1,0x1b
     e2c:	0000                	unimp
     e2e:	0101                	addi	sp,sp,0
     e30:	025a                	slli	tp,tp,0x16
     e32:	0088                	addi	a0,sp,64
     e34:	0200                	addi	s0,sp,256
     e36:	0c00                	addi	s0,sp,528
     e38:	8000                	0x8000
     e3a:	07ce                	slli	a5,a5,0x13
     e3c:	0000                	unimp
     e3e:	0602                	c.slli64	a2
     e40:	0000                	unimp
     e42:	0101                	addi	sp,sp,0
     e44:	025a                	slli	tp,tp,0x16
     e46:	0084                	addi	s1,sp,64
     e48:	1500                	addi	s0,sp,672
     e4a:	0c08                	addi	a0,sp,528
     e4c:	8000                	0x8000
     e4e:	07ce                	slli	a5,a5,0x13
     e50:	0000                	unimp
     e52:	0101                	addi	sp,sp,0
     e54:	025a                	slli	tp,tp,0x16
     e56:	0000008b          	0x8b
     e5a:	0003790b          	0x3790b
     e5e:	e200                	fsw	fs0,0(a2)
     e60:	0950                	addi	a2,sp,148
     e62:	8000                	0x8000
     e64:	01f0                	addi	a2,sp,204
     e66:	0000                	unimp
     e68:	9c01                	0x9c01
     e6a:	07ce                	slli	a5,a5,0x13
     e6c:	0000                	unimp
     e6e:	3d11                	jal	c82 <_stack_size+0x482>
     e70:	e2000003          	lb	zero,-480(zero) # fffffe20 <_stack_start+0x7fffe260>
     e74:	3a21                	jal	78c <_heap_size+0x78c>
     e76:	be000003          	lb	zero,-1056(zero) # fffffbe0 <_stack_start+0x7fffe020>
     e7a:	03000007          	0x3000007
     e7e:	0069                	c.nop	26
     e80:	0be4                	addi	s1,sp,476
     e82:	0084                	addi	s1,sp,64
     e84:	0000                	unimp
     e86:	000007e3          	beqz	zero,1694 <_stack_size+0xe94>
     e8a:	706d5403          	lhu	s0,1798(s10)
     e8e:	e500                	fsw	fs0,8(a0)
     e90:	0000840b          	0x840b
     e94:	2000                	fld	fs0,0(s0)
     e96:	0008                	0x8
     e98:	0300                	addi	s0,sp,384
     e9a:	6d54                	flw	fa3,28(a0)
     e9c:	e500                	fsw	fs0,8(a0)
     e9e:	8410                	0x8410
     ea0:	0000                	unimp
     ea2:	4200                	lw	s0,0(a2)
     ea4:	0008                	0x8
     ea6:	0300                	addi	s0,sp,384
     ea8:	0074                	addi	a3,sp,12
     eaa:	14e5                	addi	s1,s1,-7
     eac:	0084                	addi	s1,sp,64
     eae:	0000                	unimp
     eb0:	00000ae3          	beqz	zero,16c4 <_stack_size+0xec4>
     eb4:	9802                	jalr	a6
     eb6:	0009                	c.nop	2
     eb8:	ce80                	sw	s0,24(a3)
     eba:	84000007          	0x84000007
     ebe:	0006                	c.slli	zero,0x1
     ec0:	0100                	addi	s0,sp,128
     ec2:	5a01                	li	s4,-32
     ec4:	8305                	srli	a4,a4,0x1
     ec6:	8400                	0x8400
     ec8:	2700                	fld	fs0,8(a4)
     eca:	0200                	addi	s0,sp,256
     ecc:	09ac                	addi	a1,sp,216
     ece:	8000                	0x8000
     ed0:	07ce                	slli	a5,a5,0x13
     ed2:	0000                	unimp
     ed4:	0000069b          	0x69b
     ed8:	0101                	addi	sp,sp,0
     eda:	055a                	slli	a0,a0,0x16
     edc:	0082                	c.slli64	ra
     ede:	00270083          	lb	ra,2(a4) # 19002 <_stack_size+0x18802>
     ee2:	c002                	sw	zero,0(sp)
     ee4:	0009                	c.nop	2
     ee6:	ce80                	sw	s0,24(a3)
     ee8:	af000007          	0xaf000007
     eec:	0006                	c.slli	zero,0x1
     eee:	0100                	addi	s0,sp,128
     ef0:	5a01                	li	s4,-32
     ef2:	8602                	jr	a2
     ef4:	0000                	unimp
     ef6:	d402                	sw	zero,40(sp)
     ef8:	0009                	c.nop	2
     efa:	ce80                	sw	s0,24(a3)
     efc:	c6000007          	0xc6000007
     f00:	0006                	c.slli	zero,0x1
     f02:	0100                	addi	s0,sp,128
     f04:	5a01                	li	s4,-32
     f06:	8505                	srai	a0,a0,0x1
     f08:	8400                	0x8400
     f0a:	2700                	fld	fs0,8(a4)
     f0c:	0200                	addi	s0,sp,256
     f0e:	0a00                	addi	s0,sp,272
     f10:	8000                	0x8000
     f12:	07ce                	slli	a5,a5,0x13
     f14:	0000                	unimp
     f16:	06dd                	addi	a3,a3,23
     f18:	0000                	unimp
     f1a:	0101                	addi	sp,sp,0
     f1c:	055a                	slli	a0,a0,0x16
     f1e:	0086                	slli	ra,ra,0x1
     f20:	0084                	addi	s1,sp,64
     f22:	14020027          	0x14020027
     f26:	000a                	c.slli	zero,0x2
     f28:	ce80                	sw	s0,24(a3)
     f2a:	f4000007          	0xf4000007
     f2e:	0006                	c.slli	zero,0x1
     f30:	0100                	addi	s0,sp,128
     f32:	5a01                	li	s4,-32
     f34:	8405                	srai	s0,s0,0x1
     f36:	8200                	0x8200
     f38:	2700                	fld	fs0,8(a4)
     f3a:	0200                	addi	s0,sp,256
     f3c:	0a28                	addi	a0,sp,280
     f3e:	8000                	0x8000
     f40:	07ce                	slli	a5,a5,0x13
     f42:	0000                	unimp
     f44:	0708                	addi	a0,sp,896
     f46:	0000                	unimp
     f48:	0101                	addi	sp,sp,0
     f4a:	025a                	slli	tp,tp,0x16
     f4c:	0079                	c.nop	30
     f4e:	0200                	addi	s0,sp,256
     f50:	0a3c                	addi	a5,sp,280
     f52:	8000                	0x8000
     f54:	07ce                	slli	a5,a5,0x13
     f56:	0000                	unimp
     f58:	071f 0000 0101      	0x1010000071f
     f5e:	055a                	slli	a0,a0,0x16
     f60:	0086                	slli	ra,ra,0x1
     f62:	00270083          	lb	ra,2(a4)
     f66:	6802                	flw	fa6,0(sp)
     f68:	000a                	c.slli	zero,0x2
     f6a:	ce80                	sw	s0,24(a3)
     f6c:	36000007          	0x36000007
     f70:	01000007          	0x1000007
     f74:	5a01                	li	s4,-32
     f76:	8605                	srai	a2,a2,0x1
     f78:	8200                	0x8200
     f7a:	2700                	fld	fs0,8(a4)
     f7c:	0200                	addi	s0,sp,256
     f7e:	0a7c                	addi	a5,sp,284
     f80:	8000                	0x8000
     f82:	07ce                	slli	a5,a5,0x13
     f84:	0000                	unimp
     f86:	074d                	addi	a4,a4,19
     f88:	0000                	unimp
     f8a:	0101                	addi	sp,sp,0
     f8c:	055a                	slli	a0,a0,0x16
     f8e:	0082                	c.slli64	ra
     f90:	0079                	c.nop	30
     f92:	90020027          	0x90020027
     f96:	000a                	c.slli	zero,0x2
     f98:	ce80                	sw	s0,24(a3)
     f9a:	61000007          	0x61000007
     f9e:	01000007          	0x1000007
     fa2:	5a01                	li	s4,-32
     fa4:	8302                	jr	t1
     fa6:	0000                	unimp
     fa8:	a402                	fsd	ft0,8(sp)
     faa:	000a                	c.slli	zero,0x2
     fac:	ce80                	sw	s0,24(a3)
     fae:	78000007          	0x78000007
     fb2:	01000007          	0x1000007
     fb6:	5a01                	li	s4,-32
     fb8:	8605                	srai	a2,a2,0x1
     fba:	8400                	0x8400
     fbc:	2700                	fld	fs0,8(a4)
     fbe:	0200                	addi	s0,sp,256
     fc0:	0ad0                	addi	a2,sp,340
     fc2:	8000                	0x8000
     fc4:	07ce                	slli	a5,a5,0x13
     fc6:	0000                	unimp
     fc8:	0000078f          	0x78f
     fcc:	0101                	addi	sp,sp,0
     fce:	055a                	slli	a0,a0,0x16
     fd0:	00860083          	lb	ra,8(a2) # fffe2008 <_stack_start+0x7ffe0448>
     fd4:	e4020027          	0xe4020027
     fd8:	000a                	c.slli	zero,0x2
     fda:	ce80                	sw	s0,24(a3)
     fdc:	a6000007          	0xa6000007
     fe0:	01000007          	0x1000007
     fe4:	5a01                	li	s4,-32
     fe6:	8305                	srli	a4,a4,0x1
     fe8:	8200                	0x8200
     fea:	2700                	fld	fs0,8(a4)
     fec:	0200                	addi	s0,sp,256
     fee:	0af8                	addi	a4,sp,348
     ff0:	8000                	0x8000
     ff2:	07ce                	slli	a5,a5,0x13
     ff4:	0000                	unimp
     ff6:	07ba                	slli	a5,a5,0xe
     ff8:	0000                	unimp
     ffa:	0101                	addi	sp,sp,0
     ffc:	025a                	slli	tp,tp,0x16
     ffe:	0085                	addi	ra,ra,1
    1000:	1500                	addi	s0,sp,672
    1002:	0b0c                	addi	a1,sp,400
    1004:	8000                	0x8000
    1006:	07ce                	slli	a5,a5,0x13
    1008:	0000                	unimp
    100a:	0101                	addi	sp,sp,0
    100c:	055a                	slli	a0,a0,0x16
    100e:	0079                	c.nop	30
    1010:	0086                	slli	ra,ra,0x1
    1012:	1f000027          	0x1f000027
    1016:	0331                	addi	t1,t1,12
    1018:	0000                	unimp
    101a:	dc01                	beqz	s0,f32 <_stack_size+0x732>
    101c:	8410                	0x8410
    101e:	0000                	unimp
    1020:	2c00                	fld	fs0,24(s0)
    1022:	0009                	c.nop	2
    1024:	2480                	fld	fs0,8(s1)
    1026:	0000                	unimp
    1028:	0100                	addi	s0,sp,128
    102a:	f69c                	fsw	fa5,40(a3)
    102c:	12000007          	0x12000007
    1030:	0078                	addi	a4,sp,12
    1032:	1edc                	addi	a5,sp,884
    1034:	0084                	addi	s1,sp,64
    1036:	0000                	unimp
    1038:	0b10                	addi	a2,sp,400
    103a:	0000                	unimp
    103c:	0b00                	addi	s0,sp,400
    103e:	03ae                	slli	t2,t2,0xb
    1040:	0000                	unimp
    1042:	c8c0                	sw	s0,20(s1)
    1044:	0008                	0x8
    1046:	6480                	flw	fs0,8(s1)
    1048:	0000                	unimp
    104a:	0100                	addi	s0,sp,128
    104c:	269c                	fld	fa5,8(a3)
    104e:	0008                	0x8
    1050:	1600                	addi	s0,sp,800
    1052:	033d                	addi	t1,t1,15
    1054:	0000                	unimp
    1056:	20c0                	fld	fs0,128(s1)
    1058:	033a                	slli	t1,t1,0xe
    105a:	0000                	unimp
    105c:	5a01                	li	s4,-32
    105e:	4319                	li	t1,6
    1060:	c2000003          	lb	zero,-992(zero) # fffffc20 <_stack_start+0x7fffe060>
    1064:	0084                	addi	s1,sp,64
    1066:	0000                	unimp
    1068:	0b2a                	slli	s6,s6,0xa
    106a:	0000                	unimp
    106c:	0b00                	addi	s0,sp,400
    106e:	03d2                	slli	t2,t2,0x14
    1070:	0000                	unimp
    1072:	bcb1                	j	ace <_stack_size+0x2ce>
    1074:	0c800007          	0xc800007
    1078:	0001                	nop
    107a:	0100                	addi	s0,sp,128
    107c:	629c                	flw	fa5,0(a3)
    107e:	0008                	0x8
    1080:	1600                	addi	s0,sp,800
    1082:	033d                	addi	t1,t1,15
    1084:	0000                	unimp
    1086:	1fb1                	addi	t6,t6,-20
    1088:	033a                	slli	t1,t1,0xe
    108a:	0000                	unimp
    108c:	5a01                	li	s4,-32
    108e:	b3006903          	0xb3006903
    1092:	0000840b          	0x840b
    1096:	8700                	0x8700
    1098:	0300000b          	0x300000b
    109c:	006a                	c.slli	zero,0x1a
    109e:	00840eb3          	add	t4,s0,s0
    10a2:	0000                	unimp
    10a4:	0bc4                	addi	s1,sp,468
    10a6:	0000                	unimp
    10a8:	0b00                	addi	s0,sp,400
    10aa:	0384                	addi	s1,sp,448
    10ac:	0000                	unimp
    10ae:	ac99                	j	1304 <_stack_size+0xb04>
    10b0:	0006                	c.slli	zero,0x1
    10b2:	1080                	addi	s0,sp,96
    10b4:	0001                	nop
    10b6:	0100                	addi	s0,sp,128
    10b8:	b19c                	fsd	fa5,32(a1)
    10ba:	0008                	0x8
    10bc:	1100                	addi	s0,sp,160
    10be:	0390                	addi	a2,sp,448
    10c0:	0000                	unimp
    10c2:	2199                	jal	1508 <_stack_size+0xd08>
    10c4:	0084                	addi	s1,sp,64
    10c6:	0000                	unimp
    10c8:	0c61                	addi	s8,s8,24
    10ca:	0000                	unimp
    10cc:	3d16                	fld	fs10,352(sp)
    10ce:	99000003          	lb	zero,-1648(zero) # fffff990 <_stack_start+0x7fffddd0>
    10d2:	3a31                	jal	9ee <_stack_size+0x1ee>
    10d4:	01000003          	lb	zero,16(zero) # 10 <_heap_size+0x10>
    10d8:	0387115b          	0x387115b
    10dc:	0000                	unimp
    10de:	4799                	li	a5,6
    10e0:	0000033f 00000c7b 	0xc7b0000033f
    10e8:	706d7403          	0x706d7403
    10ec:	9b00                	0x9b00
    10ee:	840a                	mv	s0,sp
    10f0:	0000                	unimp
    10f2:	9500                	0x9500
    10f4:	000c                	0xc
    10f6:	0000                	unimp
    10f8:	db20                	sw	s0,112(a4)
    10fa:	01000003          	lb	zero,16(zero) # 10 <_heap_size+0x10>
    10fe:	0692                	slli	a3,a3,0x4
    1100:	0fd8                	addi	a4,sp,980
    1102:	8000                	0x8000
    1104:	0004                	0x4
    1106:	0000                	unimp
    1108:	9c01                	0x9c01
    110a:	08fe                	slli	a7,a7,0x1f
    110c:	0000                	unimp
    110e:	6312                	flw	ft6,4(sp)
    1110:	7874                	flw	fa3,116(s0)
    1112:	9200                	0x9200
    1114:	0008fe23          	0x8fe23
    1118:	a100                	fsd	fs0,0(a0)
    111a:	000c                	0xc
    111c:	1200                	addi	s0,sp,288
    111e:	0079656b          	0x79656b
    1122:	3792                	fld	fa5,288(sp)
    1124:	0000033f 00000cbb 	0xcbb0000033f
    112c:	dc10                	sw	a2,56(s0)
    112e:	0380000f          	fence	rw,i
    1132:	0009                	c.nop	2
    1134:	0100                	addi	s0,sp,128
    1136:	5a01                	li	s4,-32
    1138:	5a01a303          	lw	t1,1440(gp) # 80002148 <_stack_start+0x588>
    113c:	0101                	addi	sp,sp,0
    113e:	01a3035b          	0x1a3035b
    1142:	0800005b          	0x800005b
    1146:	00a6                	slli	ra,ra,0x9
    1148:	0000                	unimp
    114a:	0003b80b          	0x3b80b
    114e:	4900                	lw	s0,16(a0)
    1150:	0468                	addi	a0,sp,524
    1152:	8000                	0x8000
    1154:	0244                	addi	s1,sp,260
    1156:	0000                	unimp
    1158:	9c01                	0x9c01
    115a:	0979                	addi	s2,s2,30
    115c:	0000                	unimp
    115e:	8711                	srai	a4,a4,0x4
    1160:	49000003          	lb	zero,1168(zero) # 490 <_heap_size+0x490>
    1164:	0001e223          	0x1e223
    1168:	d500                	sw	s0,40(a0)
    116a:	000c                	0xc
    116c:	1200                	addi	s0,sp,288
    116e:	0079654b          	fnmsub.s	fa0,fs2,ft7,ft0,unknown
    1172:	3c49                	jal	c04 <_stack_size+0x404>
    1174:	0000033f 00000d07 	0xd070000033f
    117c:	4b006903          	0x4b006903
    1180:	7d0c                	flw	fa1,56(a0)
    1182:	0000                	unimp
    1184:	2c00                	fld	fs0,24(s0)
    1186:	000d                	c.nop	3
    1188:	0300                	addi	s0,sp,384
    118a:	006a                	c.slli	zero,0x1a
    118c:	007d0f4b          	fnmsub.s	ft10,fs10,ft7,ft0,rne
    1190:	0000                	unimp
    1192:	0d80                	addi	s0,sp,720
    1194:	0000                	unimp
    1196:	4b006b03          	0x4b006b03
    119a:	7d12                	flw	fs10,36(sp)
    119c:	0000                	unimp
    119e:	b800                	fsd	fs0,48(s0)
    11a0:	000d                	c.nop	3
    11a2:	1900                	addi	s0,sp,176
    11a4:	00000337          	lui	t1,0x0
    11a8:	794c                	flw	fa1,52(a0)
    11aa:	0009                	c.nop	2
    11ac:	1800                	addi	s0,sp,48
    11ae:	000e                	c.slli	zero,0x3
    11b0:	2100                	fld	fs0,0(a0)
    11b2:	5e22                	lw	t3,40(sp)
    11b4:	01000003          	lb	zero,16(zero) # 10 <_heap_size+0x10>
    11b8:	176a                	slli	a4,a4,0x3a
    11ba:	0090                	addi	a2,sp,64
    11bc:	0000                	unimp
    11be:	0000                	unimp
    11c0:	00008423          	sb	zero,8(ra) # 6e0 <_heap_size+0x6e0>
    11c4:	0700                	addi	s0,sp,896
    11c6:	007d                	c.nop	31
    11c8:	0000                	unimp
    11ca:	          	lb	zero,0(zero) # 0 <_heap_size>

Disassembly of section .debug_abbrev:

00000000 <.debug_abbrev>:
   0:	0d01                	addi	s10,s10,0
   2:	0300                	addi	s0,sp,384
   4:	3a0e                	fld	fs4,224(sp)
   6:	390b3b0b          	0x390b3b0b
   a:	3813490b          	0x3813490b
   e:	0200000b          	0x200000b
  12:	0024                	addi	s1,sp,8
  14:	0b3e0b0b          	0xb3e0b0b
  18:	00000e03          	lb	t3,0(zero) # 0 <_heap_size>
  1c:	03001603          	lh	a2,48(zero) # 30 <_heap_size+0x30>
  20:	3a0e                	fld	fs4,224(sp)
  22:	390b3b0b          	0x390b3b0b
  26:	0013490b          	0x13490b
  2a:	0400                	addi	s0,sp,512
  2c:	0034                	addi	a3,sp,8
  2e:	213a0e03          	lb	t3,531(s4) # 1213 <_stack_size+0xa13>
  32:	3b02                	fld	fs6,32(sp)
  34:	490b390b          	0x490b390b
  38:	00180213          	addi	tp,a6,1 # 2c807 <_stack_size+0x2c007>
  3c:	0500                	addi	s0,sp,640
  3e:	0b0b0113          	addi	sp,s6,176
  42:	0b3a                	slli	s6,s6,0xe
  44:	21390b3b          	0x21390b3b
  48:	0109                	addi	sp,sp,2
  4a:	06000013          	li	zero,96
  4e:	0049                	c.nop	18
  50:	1802                	slli	a6,a6,0x20
  52:	187e                	slli	a6,a6,0x3f
  54:	0000                	unimp
  56:	7d014807          	flq	fa6,2000(sp)
  5a:	7f01                	lui	t5,0xfffe0
  5c:	08000013          	li	zero,128
  60:	210b000f          	0x210b000f
  64:	4904                	lw	s1,16(a0)
  66:	09000013          	li	zero,144
  6a:	0028                	addi	a0,sp,8
  6c:	0b1c0803          	lb	a6,177(s8)
  70:	0000                	unimp
  72:	340a                	fld	fs0,160(sp)
  74:	0300                	addi	s0,sp,384
  76:	3a0e                	fld	fs4,224(sp)
  78:	0221                	addi	tp,tp,8
  7a:	21390b3b          	0x21390b3b
  7e:	4905                	li	s2,1
  80:	02193f13          	sltiu	t5,s2,33
  84:	0018                	0x18
  86:	0b00                	addi	s0,sp,400
  88:	0034                	addi	a3,sp,8
  8a:	213a0803          	lb	a6,531(s4)
  8e:	3b02                	fld	fs6,32(sp)
  90:	1321390b          	0x1321390b
  94:	1349                	addi	t1,t1,-14
  96:	1802                	slli	a6,a6,0x20
  98:	0000                	unimp
  9a:	490c                	lw	a1,16(a0)
  9c:	8000                	0x8000
  9e:	1301                	addi	t1,t1,-32
  a0:	187e                	slli	a6,a6,0x3f
  a2:	0000                	unimp
  a4:	050d                	addi	a0,a0,3
  a6:	0300                	addi	s0,sp,384
  a8:	3a08                	fld	fa0,48(a2)
  aa:	0121                	addi	sp,sp,8
  ac:	0b390b3b          	0xb390b3b
  b0:	1349                	addi	t1,t1,-14
  b2:	0000                	unimp
  b4:	050e                	slli	a0,a0,0x3
  b6:	3100                	fld	fs0,32(a0)
  b8:	80211c13          	0x80211c13
  bc:	8480                	0x8480
  be:	7f80                	flw	fs0,56(a5)
  c0:	0000                	unimp
  c2:	0301040f          	0x301040f
  c6:	3e0e                	fld	ft8,224(sp)
  c8:	0721                	addi	a4,a4,8
  ca:	4904210b          	0x4904210b
  ce:	01213a13          	sltiu	s4,sp,18
  d2:	21390b3b          	0x21390b3b
  d6:	0106                	slli	sp,sp,0x1
  d8:	10000013          	li	zero,256
  dc:	0028                	addi	a0,sp,8
  de:	0b1c0e03          	lb	t3,177(s8)
  e2:	0000                	unimp
  e4:	4811                	li	a6,4
  e6:	7d01                	lui	s10,0xfffe0
  e8:	7f01                	lui	t5,0xfffe0
  ea:	00130113          	addi	sp,t1,1 # 1 <_heap_size+0x1>
  ee:	1200                	addi	s0,sp,288
  f0:	0111010b          	0x111010b
  f4:	0612                	slli	a2,a2,0x4
  f6:	1301                	addi	t1,t1,-32
  f8:	0000                	unimp
  fa:	03012e13          	slti	t3,sp,48
  fe:	3a0e                	fld	fs4,224(sp)
 100:	0121                	addi	sp,sp,8
 102:	21390b3b          	0x21390b3b
 106:	270d                	jal	828 <_stack_size+0x28>
 108:	2019                	jal	10e <_heap_size+0x10e>
 10a:	0121                	addi	sp,sp,8
 10c:	1301                	addi	t1,t1,-32
 10e:	0000                	unimp
 110:	0514                	addi	a3,sp,640
 112:	0300                	addi	s0,sp,384
 114:	3a0e                	fld	fs4,224(sp)
 116:	0121                	addi	sp,sp,8
 118:	0b390b3b          	0xb390b3b
 11c:	1349                	addi	t1,t1,-14
 11e:	0000                	unimp
 120:	2e15                	jal	454 <_heap_size+0x454>
 122:	3101                	jal	fffffd22 <_stack_start+0x7fffe162>
 124:	12011113          	0x12011113
 128:	4006                	0x4006
 12a:	7a18                	flw	fa4,48(a2)
 12c:	0119                	addi	sp,sp,6
 12e:	16000013          	li	zero,352
 132:	0111                	addi	sp,sp,4
 134:	0e25                	addi	t3,t3,9
 136:	1f030b13          	addi	s6,t1,496
 13a:	17551f1b          	0x17551f1b
 13e:	0111                	addi	sp,sp,4
 140:	1710                	addi	a2,sp,928
 142:	0000                	unimp
 144:	0b002417          	auipc	s0,0xb002
 148:	030b3e0b          	0x30b3e0b
 14c:	0008                	0x8
 14e:	1800                	addi	s0,sp,48
 150:	0035                	c.nop	13
 152:	1349                	addi	t1,t1,-14
 154:	0000                	unimp
 156:	2e19                	jal	46c <_heap_size+0x46c>
 158:	0301                	addi	t1,t1,0
 15a:	3a0e                	fld	fs4,224(sp)
 15c:	39053b0b          	0x39053b0b
 160:	1119270b          	0x1119270b
 164:	1201                	addi	tp,tp,-32
 166:	4006                	0x4006
 168:	7a18                	flw	fa4,48(a2)
 16a:	0119                	addi	sp,sp,6
 16c:	1a000013          	li	zero,416
 170:	1755010b          	0x1755010b
 174:	0000                	unimp
 176:	0300341b          	0x300341b
 17a:	3a08                	fld	fa0,48(a2)
 17c:	39053b0b          	0x39053b0b
 180:	0213490b          	0x213490b
 184:	1c000017          	auipc	zero,0x1c000
 188:	002e                	c.slli	zero,0xb
 18a:	0e03193f 0b3b0b3a 	0xb3b0b3a0e03193f
 192:	0b39                	addi	s6,s6,14
 194:	13491927          	0x13491927
 198:	0111                	addi	sp,sp,4
 19a:	0612                	slli	a2,a2,0x4
 19c:	1840                	addi	s0,sp,52
 19e:	197a                	slli	s2,s2,0x3e
 1a0:	0000                	unimp
 1a2:	2e1d                	jal	4d8 <_heap_size+0x4d8>
 1a4:	3f01                	jal	b4 <_heap_size+0xb4>
 1a6:	0319                	addi	t1,t1,6
 1a8:	3a0e                	fld	fs4,224(sp)
 1aa:	390b3b0b          	0x390b3b0b
 1ae:	1201110b          	0x1201110b
 1b2:	4006                	0x4006
 1b4:	7a18                	flw	fa4,48(a2)
 1b6:	0119                	addi	sp,sp,6
 1b8:	1e000013          	li	zero,480
 1bc:	0111010b          	0x111010b
 1c0:	0612                	slli	a2,a2,0x4
 1c2:	0000                	unimp
 1c4:	2e1f 3f01 0319      	0x3193f012e1f
 1ca:	3a0e                	fld	fs4,224(sp)
 1cc:	390b3b0b          	0x390b3b0b
 1d0:	1113490b          	0x1113490b
 1d4:	1201                	addi	tp,tp,-32
 1d6:	4006                	0x4006
 1d8:	7a18                	flw	fa4,48(a2)
 1da:	0119                	addi	sp,sp,6
 1dc:	20000013          	li	zero,512
 1e0:	0034                	addi	a3,sp,8
 1e2:	0b3a0e03          	lb	t3,179(s4)
 1e6:	0b390b3b          	0xb390b3b
 1ea:	1349                	addi	t1,t1,-14
 1ec:	061c                	addi	a5,sp,768
 1ee:	0000                	unimp
 1f0:	3421                	jal	fffffbf8 <_stack_start+0x7fffe038>
 1f2:	0300                	addi	s0,sp,384
 1f4:	3a0e                	fld	fs4,224(sp)
 1f6:	390b3b0b          	0x390b3b0b
 1fa:	1c13490b          	0x1c13490b
 1fe:	2200000b          	0x2200000b
 202:	1755010b          	0x1755010b
 206:	1301                	addi	t1,t1,-32
 208:	0000                	unimp
 20a:	03003423          	0x3003423
 20e:	3a08                	fld	fa0,48(a2)
 210:	390b3b0b          	0x390b3b0b
 214:	0213490b          	0x213490b
 218:	24000017          	auipc	zero,0x24000
 21c:	0048                	addi	a0,sp,4
 21e:	017d                	addi	sp,sp,31
 220:	137f                	0x137f
 222:	0000                	unimp
 224:	2e25                	jal	55c <_heap_size+0x55c>
 226:	3f01                	jal	136 <_heap_size+0x136>
 228:	0319                	addi	t1,t1,6
 22a:	3a0e                	fld	fs4,224(sp)
 22c:	390b3b0b          	0x390b3b0b
 230:	1119270b          	0x1119270b
 234:	1201                	addi	tp,tp,-32
 236:	4006                	0x4006
 238:	7a18                	flw	fa4,48(a2)
 23a:	0119                	addi	sp,sp,6
 23c:	26000013          	li	zero,608
 240:	0005                	c.nop	1
 242:	0b3a0803          	lb	a6,179(s4)
 246:	0b390b3b          	0xb390b3b
 24a:	1349                	addi	t1,t1,-14
 24c:	1702                	slli	a4,a4,0x20
 24e:	0000                	unimp
 250:	03012e27          	fsw	fa6,60(sp)
 254:	3a0e                	fld	fs4,224(sp)
 256:	390b3b0b          	0x390b3b0b
 25a:	4919270b          	0x4919270b
 25e:	010b2013          	slti	zero,s6,16
 262:	28000013          	li	zero,640
 266:	0005                	c.nop	1
 268:	1331                	addi	t1,t1,-20
 26a:	1802                	slli	a6,a6,0x20
 26c:	0000                	unimp
 26e:	2e29                	jal	588 <_heap_size+0x588>
 270:	3101                	jal	fffffe70 <_stack_start+0x7fffe2b0>
 272:	12011113          	0x12011113
 276:	4006                	0x4006
 278:	7a18                	flw	fa4,48(a2)
 27a:	0019                	c.nop	6
 27c:	2a00                	fld	fs0,16(a2)
 27e:	0005                	c.nop	1
 280:	1331                	addi	t1,t1,-20
 282:	1702                	slli	a4,a4,0x20
 284:	0000                	unimp
 286:	0100                	addi	s0,sp,128
 288:	0011                	c.nop	4
 28a:	1710                	addi	a2,sp,928
 28c:	0111                	addi	sp,sp,4
 28e:	0f12                	slli	t5,t5,0x4
 290:	0e1b0e03          	lb	t3,225(s6)
 294:	0e25                	addi	t3,t3,9
 296:	00000513          	li	a0,0
 29a:	0100                	addi	s0,sp,128
 29c:	0034                	addi	a3,sp,8
 29e:	213a0803          	lb	a6,531(s4)
 2a2:	3b01                	jal	ffffffb2 <_stack_start+0x7fffe3f2>
 2a4:	490b390b          	0x490b390b
 2a8:	00170213          	addi	tp,a4,1
 2ac:	0200                	addi	s0,sp,256
 2ae:	0024                	addi	s1,sp,8
 2b0:	0b3e0b0b          	0xb3e0b0b
 2b4:	00000e03          	lb	t3,0(zero) # 0 <_heap_size>
 2b8:	0b000f03          	lb	t5,176(zero) # b0 <_heap_size+0xb0>
 2bc:	0421                	addi	s0,s0,8
 2be:	1349                	addi	t1,t1,-14
 2c0:	0000                	unimp
 2c2:	0504                	addi	s1,sp,640
 2c4:	0300                	addi	s0,sp,384
 2c6:	3a08                	fld	fa0,48(a2)
 2c8:	0121                	addi	sp,sp,8
 2ca:	0b390b3b          	0xb390b3b
 2ce:	1349                	addi	t1,t1,-14
 2d0:	1702                	slli	a4,a4,0x20
 2d2:	0000                	unimp
 2d4:	4905                	li	s2,1
 2d6:	0200                	addi	s0,sp,256
 2d8:	7e18                	flw	fa4,56(a2)
 2da:	0018                	0x18
 2dc:	0600                	addi	s0,sp,768
 2de:	0016                	c.slli	zero,0x5
 2e0:	0b3a0e03          	lb	t3,179(s4)
 2e4:	0b390b3b          	0xb390b3b
 2e8:	1349                	addi	t1,t1,-14
 2ea:	0000                	unimp
 2ec:	49002607          	flw	fa2,1168(zero) # 490 <_heap_size+0x490>
 2f0:	08000013          	li	zero,128
 2f4:	13490037          	lui	zero,0x13490
 2f8:	0000                	unimp
 2fa:	2e09                	jal	60c <_heap_size+0x60c>
 2fc:	3f01                	jal	20c <_heap_size+0x20c>
 2fe:	0319                	addi	t1,t1,6
 300:	3a0e                	fld	fs4,224(sp)
 302:	0121                	addi	sp,sp,8
 304:	0b390b3b          	0xb390b3b
 308:	13491927          	0x13491927
 30c:	0111                	addi	sp,sp,4
 30e:	0612                	slli	a2,a2,0x4
 310:	1840                	addi	s0,sp,52
 312:	197a                	slli	s2,s2,0x3e
 314:	1301                	addi	t1,t1,-32
 316:	0000                	unimp
 318:	0b0a                	slli	s6,s6,0x2
 31a:	1101                	addi	sp,sp,-32
 31c:	1201                	addi	tp,tp,-32
 31e:	0106                	slli	sp,sp,0x1
 320:	0b000013          	li	zero,176
 324:	1755010b          	0x1755010b
 328:	1301                	addi	t1,t1,-32
 32a:	0000                	unimp
 32c:	340c                	fld	fa1,40(s0)
 32e:	0300                	addi	s0,sp,384
 330:	3a08                	fld	fa0,48(a2)
 332:	0121                	addi	sp,sp,8
 334:	0b390b3b          	0xb390b3b
 338:	1349                	addi	t1,t1,-14
 33a:	0000                	unimp
 33c:	480d                	li	a6,3
 33e:	7d01                	lui	s10,0xfffe0
 340:	7f01                	lui	t5,0xfffe0
 342:	0e000013          	li	zero,224
 346:	0111                	addi	sp,sp,4
 348:	0e25                	addi	t3,t3,9
 34a:	1f030b13          	addi	s6,t1,496
 34e:	01111f1b          	0x1111f1b
 352:	0612                	slli	a2,a2,0x4
 354:	1710                	addi	a2,sp,928
 356:	0000                	unimp
 358:	0b00240f          	0xb00240f
 35c:	030b3e0b          	0x30b3e0b
 360:	0008                	0x8
 362:	1000                	addi	s0,sp,32
 364:	0b0b000f          	0xb0b000f
 368:	0000                	unimp
 36a:	0b11                	addi	s6,s6,4
 36c:	5501                	li	a0,-32
 36e:	12000017          	auipc	zero,0x12000
 372:	0026                	c.slli	zero,0x9
 374:	0000                	unimp
 376:	03003413          	sltiu	s0,zero,48
 37a:	3a08                	fld	fa0,48(a2)
 37c:	390b3b0b          	0x390b3b0b
 380:	1c13490b          	0x1c13490b
 384:	1400000b          	0x1400000b
 388:	000a                	c.slli	zero,0x2
 38a:	0b3a0e03          	lb	t3,179(s4)
 38e:	0b390b3b          	0xb390b3b
 392:	0111                	addi	sp,sp,4
 394:	0000                	unimp
 396:	3415                	jal	fffffdba <_stack_start+0x7fffe1fa>
 398:	0300                	addi	s0,sp,384
 39a:	3a0e                	fld	fs4,224(sp)
 39c:	390b3b0b          	0x390b3b0b
 3a0:	0213490b          	0x213490b
 3a4:	16000017          	auipc	zero,0x16000
 3a8:	0148                	addi	a0,sp,132
 3aa:	017d                	addi	sp,sp,31
 3ac:	137f                	0x137f
 3ae:	1301                	addi	t1,t1,-32
 3b0:	0000                	unimp
 3b2:	11010b17          	auipc	s6,0x11010
 3b6:	1201                	addi	tp,tp,-32
 3b8:	0006                	c.slli	zero,0x1
 3ba:	1800                	addi	s0,sp,48
 3bc:	002e                	c.slli	zero,0xb
 3be:	193c193f 0e030e6e 	0xe030e6e193c193f
 3c6:	0b3a                	slli	s6,s6,0xe
 3c8:	00000b3b          	0xb3b
 3cc:	0100                	addi	s0,sp,128
 3ce:	0049                	c.nop	18
 3d0:	1802                	slli	a6,a6,0x20
 3d2:	187e                	slli	a6,a6,0x3f
 3d4:	0000                	unimp
 3d6:	4802                	lw	a6,0(sp)
 3d8:	7d01                	lui	s10,0xfffe0
 3da:	7f01                	lui	t5,0xfffe0
 3dc:	00130113          	addi	sp,t1,1
 3e0:	0300                	addi	s0,sp,384
 3e2:	0034                	addi	a3,sp,8
 3e4:	213a0803          	lb	a6,531(s4)
 3e8:	3b01                	jal	f8 <_heap_size+0xf8>
 3ea:	490b390b          	0x490b390b
 3ee:	00170213          	addi	tp,a4,1
 3f2:	0400                	addi	s0,sp,512
 3f4:	0024                	addi	s1,sp,8
 3f6:	0b3e0b0b          	0xb3e0b0b
 3fa:	00000e03          	lb	t3,0(zero) # 0 <_heap_size>
 3fe:	3405                	jal	fffffe1e <_stack_start+0x7fffe25e>
 400:	0300                	addi	s0,sp,384
 402:	3a08                	fld	fa0,48(a2)
 404:	0121                	addi	sp,sp,8
 406:	0b39053b          	0xb39053b
 40a:	1349                	addi	t1,t1,-14
 40c:	1702                	slli	a4,a4,0x20
 40e:	0000                	unimp
 410:	1606                	slli	a2,a2,0x21
 412:	0300                	addi	s0,sp,384
 414:	3a0e                	fld	fs4,224(sp)
 416:	390b3b0b          	0x390b3b0b
 41a:	0013490b          	0x13490b
 41e:	0700                	addi	s0,sp,896
 420:	0021                	c.nop	8
 422:	1349                	addi	t1,t1,-14
 424:	00000b2f          	0xb2f
 428:	0f08                	addi	a0,sp,912
 42a:	0b00                	addi	s0,sp,400
 42c:	0421                	addi	s0,s0,8
 42e:	1349                	addi	t1,t1,-14
 430:	0000                	unimp
 432:	2e09                	jal	744 <_heap_size+0x744>
 434:	0301                	addi	t1,t1,0
 436:	3a0e                	fld	fs4,224(sp)
 438:	0121                	addi	sp,sp,8
 43a:	2139053b          	0x2139053b
 43e:	270d                	jal	b60 <_stack_size+0x360>
 440:	1119                	addi	sp,sp,-26
 442:	1201                	addi	tp,tp,-32
 444:	4006                	0x4006
 446:	7a18                	flw	fa4,48(a2)
 448:	0119                	addi	sp,sp,6
 44a:	0a000013          	li	zero,160
 44e:	0005                	c.nop	1
 450:	213a0e03          	lb	t3,531(s4)
 454:	3b01                	jal	164 <_heap_size+0x164>
 456:	3905                	jal	86 <_heap_size+0x86>
 458:	0213490b          	0x213490b
 45c:	0b000017          	auipc	zero,0xb000
 460:	012e                	slli	sp,sp,0xb
 462:	213a0e03          	lb	t3,531(s4)
 466:	3b01                	jal	176 <_heap_size+0x176>
 468:	0d21390b          	0xd21390b
 46c:	01111927          	0x1111927
 470:	0612                	slli	a2,a2,0x4
 472:	1840                	addi	s0,sp,52
 474:	197a                	slli	s2,s2,0x3e
 476:	1301                	addi	t1,t1,-32
 478:	0000                	unimp
 47a:	260c                	fld	fa1,8(a2)
 47c:	4900                	lw	s0,16(a0)
 47e:	0d000013          	li	zero,208
 482:	000d                	c.nop	3
 484:	0b3a0e03          	lb	t3,179(s4)
 488:	0b390b3b          	0xb390b3b
 48c:	1349                	addi	t1,t1,-14
 48e:	0b38                	addi	a4,sp,408
 490:	0000                	unimp
 492:	010e                	slli	sp,sp,0x3
 494:	4901                	li	s2,0
 496:	00130113          	addi	sp,t1,1
 49a:	0f00                	addi	s0,sp,912
 49c:	0005                	c.nop	1
 49e:	213a0803          	lb	a6,531(s4)
 4a2:	3b01                	jal	1b2 <_heap_size+0x1b2>
 4a4:	3905                	jal	d4 <_heap_size+0xd4>
 4a6:	0213490b          	0x213490b
 4aa:	10000017          	auipc	zero,0x10000
 4ae:	0148                	addi	a0,sp,132
 4b0:	017d                	addi	sp,sp,31
 4b2:	0182                	c.slli64	gp
 4b4:	7f19                	lui	t5,0xfffe6
 4b6:	11000013          	li	zero,272
 4ba:	0005                	c.nop	1
 4bc:	213a0e03          	lb	t3,531(s4)
 4c0:	3b01                	jal	1d0 <_heap_size+0x1d0>
 4c2:	490b390b          	0x490b390b
 4c6:	00170213          	addi	tp,a4,1
 4ca:	1200                	addi	s0,sp,288
 4cc:	0005                	c.nop	1
 4ce:	213a0803          	lb	a6,531(s4)
 4d2:	3b01                	jal	1e2 <_heap_size+0x1e2>
 4d4:	490b390b          	0x490b390b
 4d8:	00170213          	addi	tp,a4,1
 4dc:	1300                	addi	s0,sp,416
 4de:	0034                	addi	a3,sp,8
 4e0:	213a0e03          	lb	t3,531(s4)
 4e4:	3b01                	jal	1f4 <_heap_size+0x1f4>
 4e6:	1621390b          	0x1621390b
 4ea:	1349                	addi	t1,t1,-14
 4ec:	1802                	slli	a6,a6,0x20
 4ee:	0000                	unimp
 4f0:	3414                	fld	fa3,40(s0)
 4f2:	0300                	addi	s0,sp,384
 4f4:	3a0e                	fld	fs4,224(sp)
 4f6:	0121                	addi	sp,sp,8
 4f8:	2139053b          	0x2139053b
 4fc:	0213490b          	0x213490b
 500:	15000017          	auipc	zero,0x15000
 504:	0148                	addi	a0,sp,132
 506:	017d                	addi	sp,sp,31
 508:	137f                	0x137f
 50a:	0000                	unimp
 50c:	0516                	slli	a0,a0,0x5
 50e:	0300                	addi	s0,sp,384
 510:	3a0e                	fld	fs4,224(sp)
 512:	0121                	addi	sp,sp,8
 514:	0b390b3b          	0xb390b3b
 518:	1349                	addi	t1,t1,-14
 51a:	1802                	slli	a6,a6,0x20
 51c:	0000                	unimp
 51e:	3f012e17          	auipc	t3,0x3f012
 522:	0319                	addi	t1,t1,6
 524:	3a0e                	fld	fs4,224(sp)
 526:	0121                	addi	sp,sp,8
 528:	2139053b          	0x2139053b
 52c:	2706                	fld	fa4,64(sp)
 52e:	1119                	addi	sp,sp,-26
 530:	1201                	addi	tp,tp,-32
 532:	4006                	0x4006
 534:	7a18                	flw	fa4,48(a2)
 536:	0119                	addi	sp,sp,6
 538:	18000013          	li	zero,384
 53c:	0005                	c.nop	1
 53e:	213a0e03          	lb	t3,531(s4)
 542:	3b01                	jal	252 <_heap_size+0x252>
 544:	3905                	jal	174 <_heap_size+0x174>
 546:	0213490b          	0x213490b
 54a:	0018                	0x18
 54c:	1900                	addi	s0,sp,176
 54e:	0034                	addi	a3,sp,8
 550:	213a0e03          	lb	t3,531(s4)
 554:	3b01                	jal	264 <_heap_size+0x264>
 556:	0b21390b          	0xb21390b
 55a:	1349                	addi	t1,t1,-14
 55c:	1702                	slli	a4,a4,0x20
 55e:	0000                	unimp
 560:	111a                	slli	sp,sp,0x26
 562:	2501                	jal	b62 <_stack_size+0x362>
 564:	130e                	slli	t1,t1,0x23
 566:	1b1f030b          	0x1b1f030b
 56a:	111f 1201 1006      	0x10061201111f
 570:	1b000017          	auipc	zero,0x1b000
 574:	0024                	addi	s1,sp,8
 576:	0b3e0b0b          	0xb3e0b0b
 57a:	00000803          	lb	a6,0(zero) # 0 <_heap_size>
 57e:	351c                	fld	fa5,40(a0)
 580:	4900                	lw	s0,16(a0)
 582:	1d000013          	li	zero,464
 586:	0e030113          	addi	sp,t1,224
 58a:	0b3a0b0b          	0xb3a0b0b
 58e:	0b390b3b          	0xb390b3b
 592:	1301                	addi	t1,t1,-32
 594:	0000                	unimp
 596:	131e                	slli	t1,t1,0x27
 598:	0b01                	addi	s6,s6,0
 59a:	3b0b3a0b          	0x3b0b3a0b
 59e:	010b390b          	0x10b390b
 5a2:	1f000013          	li	zero,496
 5a6:	012e                	slli	sp,sp,0xb
 5a8:	0b3a0e03          	lb	t3,179(s4)
 5ac:	0b390b3b          	0xb390b3b
 5b0:	13491927          	0x13491927
 5b4:	0111                	addi	sp,sp,4
 5b6:	0612                	slli	a2,a2,0x4
 5b8:	1840                	addi	s0,sp,52
 5ba:	197a                	slli	s2,s2,0x3e
 5bc:	1301                	addi	t1,t1,-32
 5be:	0000                	unimp
 5c0:	2e20                	fld	fs0,88(a2)
 5c2:	3f01                	jal	4d2 <_heap_size+0x4d2>
 5c4:	0319                	addi	t1,t1,6
 5c6:	3a0e                	fld	fs4,224(sp)
 5c8:	390b3b0b          	0x390b3b0b
 5cc:	1119270b          	0x1119270b
 5d0:	1201                	addi	tp,tp,-32
 5d2:	4006                	0x4006
 5d4:	7a18                	flw	fa4,48(a2)
 5d6:	0119                	addi	sp,sp,6
 5d8:	21000013          	li	zero,528
 5dc:	0000010b          	0x10b
 5e0:	3422                	fld	fs0,40(sp)
 5e2:	0300                	addi	s0,sp,384
 5e4:	3a0e                	fld	fs4,224(sp)
 5e6:	390b3b0b          	0x390b3b0b
 5ea:	0013490b          	0x13490b
 5ee:	2300                	fld	fs0,0(a4)
 5f0:	0101                	addi	sp,sp,0
 5f2:	1349                	addi	t1,t1,-14
 5f4:	0000                	unimp
	...

Disassembly of section .debug_loclists:

00000000 <.debug_loclists>:
   0:	0072                	c.slli	zero,0x1c
   2:	0000                	unimp
   4:	0005                	c.nop	1
   6:	0004                	0x4
   8:	0000                	unimp
   a:	0000                	unimp
   c:	0001a807          	flw	fa6,0(gp) # 80001ba8 <__global_pointer$>
  10:	ec80                	fsw	fs0,24(s1)
  12:	0001                	nop
  14:	0280                	addi	s0,sp,320
  16:	9f30                	0x9f30
  18:	0001f007          	0x1f007
  1c:	fb80                	fsw	fs0,48(a5)
  1e:	0001                	nop
  20:	0180                	addi	s0,sp,192
  22:	075f 01fb 8000      	0x800001fb075f
  28:	0204                	addi	s1,sp,256
  2a:	8000                	0x8000
  2c:	5801                	li	a6,-32
  2e:	0700                	addi	s0,sp,896
  30:	1160                	addi	s0,sp,172
  32:	8000                	0x8000
  34:	1164                	addi	s1,sp,172
  36:	8000                	0x8000
  38:	3002                	fld	ft0,32(sp)
  3a:	009f 7007 0001      	0x17007009f
  40:	8480                	0x8480
  42:	0001                	nop
  44:	0180                	addi	s0,sp,192
  46:	075a                	slli	a4,a4,0x16
  48:	0184                	addi	s1,sp,192
  4a:	8000                	0x8000
  4c:	01a0                	addi	s0,sp,200
  4e:	8000                	0x8000
  50:	5801                	li	a6,-32
  52:	0700                	addi	s0,sp,896
  54:	0140                	addi	s0,sp,132
  56:	8000                	0x8000
  58:	0150                	addi	a2,sp,132
  5a:	8000                	0x8000
  5c:	5a01                	li	s4,-32
  5e:	00015007          	0x15007
  62:	6880                	flw	fs0,16(s1)
  64:	0001                	nop
  66:	0180                	addi	s0,sp,192
  68:	0758                	addi	a4,sp,900
  6a:	0168                	addi	a0,sp,140
  6c:	8000                	0x8000
  6e:	0170                	addi	a2,sp,140
  70:	8000                	0x8000
  72:	7f02                	flw	ft10,32(sp)
  74:	0000                	unimp
  76:	03f0                	addi	a2,sp,460
  78:	0000                	unimp
  7a:	0005                	c.nop	1
  7c:	0004                	0x4
  7e:	0000                	unimp
  80:	0000                	unimp
  82:	0003f407          	0x3f407
  86:	3080                	fld	fs0,32(s1)
  88:	0004                	0x4
  8a:	0180                	addi	s0,sp,192
  8c:	075a                	slli	a4,a4,0x16
  8e:	0430                	addi	a2,sp,520
  90:	8000                	0x8000
  92:	0438                	addi	a4,sp,520
  94:	8000                	0x8000
  96:	a304                	fsd	fs1,0(a4)
  98:	5a01                	li	s4,-32
  9a:	079f 0440 8000      	0x80000440079f
  a0:	045c                	addi	a5,sp,516
  a2:	8000                	0x8000
  a4:	5a01                	li	s4,-32
  a6:	00046007          	0x46007
  aa:	6480                	flw	fs0,8(s1)
  ac:	0004                	0x4
  ae:	0180                	addi	s0,sp,192
  b0:	005a                	c.slli	zero,0x16
  b2:	0003f407          	0x3f407
  b6:	1480                	addi	s0,sp,608
  b8:	0004                	0x4
  ba:	0180                	addi	s0,sp,192
  bc:	0414075b          	0x414075b
  c0:	8000                	0x8000
  c2:	0438                	addi	a4,sp,520
  c4:	8000                	0x8000
  c6:	a304                	fsd	fs1,0(a4)
  c8:	5b01                	li	s6,-32
  ca:	079f 0438 8000      	0x80000438079f
  d0:	0468                	addi	a0,sp,524
  d2:	8000                	0x8000
  d4:	5b01                	li	s6,-32
  d6:	0700                	addi	s0,sp,896
  d8:	03f4                	addi	a3,sp,460
  da:	8000                	0x8000
  dc:	0434                	addi	a3,sp,520
  de:	8000                	0x8000
  e0:	5c01                	li	s8,-32
  e2:	00043407          	fld	fs0,0(s0) # b002144 <_stack_size+0xb001944>
  e6:	3880                	fld	fs0,48(s1)
  e8:	0004                	0x4
  ea:	0480                	addi	s0,sp,576
  ec:	9f5c01a3          	sb	s5,-1565(s8)
  f0:	0700                	addi	s0,sp,896
  f2:	0400                	addi	s0,sp,512
  f4:	8000                	0x8000
  f6:	0414                	addi	a3,sp,512
  f8:	8000                	0x8000
  fa:	5a01                	li	s4,-32
  fc:	00041407          	0x41407
 100:	1880                	addi	s0,sp,112
 102:	0004                	0x4
 104:	0380                	addi	s0,sp,448
 106:	047f                	0x47f
 108:	079f 0418 8000      	0x80000418079f
 10e:	0420                	addi	s0,sp,520
 110:	8000                	0x8000
 112:	5f01                	li	t5,-32
 114:	00042007          	flw	ft0,0(s0)
 118:	2c80                	fld	fs0,24(s1)
 11a:	0004                	0x4
 11c:	0380                	addi	s0,sp,448
 11e:	047f                	0x47f
 120:	009f 0007 0004      	0x40007009f
 126:	3880                	fld	fs0,48(s1)
 128:	0004                	0x4
 12a:	0180                	addi	s0,sp,192
 12c:	0807005b          	0x807005b
 130:	0004                	0x4
 132:	3880                	fld	fs0,48(s1)
 134:	0004                	0x4
 136:	0180                	addi	s0,sp,192
 138:	0060                	addi	s0,sp,12
 13a:	00044807          	flq	fa6,0(s0)
 13e:	5080                	lw	s0,32(s1)
 140:	0004                	0x4
 142:	0180                	addi	s0,sp,192
 144:	075f 0460 8000      	0x80000460075f
 14a:	0468                	addi	a0,sp,524
 14c:	8000                	0x8000
 14e:	5f01                	li	t5,-32
 150:	0700                	addi	s0,sp,896
 152:	044c                	addi	a1,sp,516
 154:	8000                	0x8000
 156:	0450                	addi	a2,sp,516
 158:	8000                	0x8000
 15a:	5e01                	li	t3,-32
 15c:	00046007          	0x46007
 160:	6880                	flw	fs0,16(s1)
 162:	0004                	0x4
 164:	0180                	addi	s0,sp,192
 166:	005e                	c.slli	zero,0x17
 168:	00027407          	0x27407
 16c:	c480                	sw	s0,8(s1)
 16e:	0002                	c.slli64	zero
 170:	0180                	addi	s0,sp,192
 172:	075a                	slli	a4,a4,0x16
 174:	02c4                	addi	s1,sp,324
 176:	8000                	0x8000
 178:	030c                	addi	a1,sp,384
 17a:	8000                	0x8000
 17c:	6301                	0x6301
 17e:	00030c07          	0x30c07
 182:	4880                	lw	s0,16(s1)
 184:	01800003          	lb	zero,24(zero) # 18 <_heap_size+0x18>
 188:	075a                	slli	a4,a4,0x16
 18a:	0348                	addi	a0,sp,388
 18c:	8000                	0x8000
 18e:	03a0                	addi	s0,sp,456
 190:	8000                	0x8000
 192:	6301                	0x6301
 194:	0003a007          	flw	ft0,0(t2)
 198:	a880                	fsd	fs0,16(s1)
 19a:	01800003          	lb	zero,24(zero) # 18 <_heap_size+0x18>
 19e:	075a                	slli	a4,a4,0x16
 1a0:	03a8                	addi	a0,sp,456
 1a2:	8000                	0x8000
 1a4:	03d8                	addi	a4,sp,452
 1a6:	8000                	0x8000
 1a8:	6301                	0x6301
 1aa:	0003d807          	0x3d807
 1ae:	e080                	fsw	fs0,0(s1)
 1b0:	01800003          	lb	zero,24(zero) # 18 <_heap_size+0x18>
 1b4:	075a                	slli	a4,a4,0x16
 1b6:	03e0                	addi	s0,sp,460
 1b8:	8000                	0x8000
 1ba:	03f4                	addi	a3,sp,460
 1bc:	8000                	0x8000
 1be:	6301                	0x6301
 1c0:	0700                	addi	s0,sp,896
 1c2:	0274                	addi	a3,sp,268
 1c4:	8000                	0x8000
 1c6:	02c4                	addi	s1,sp,324
 1c8:	8000                	0x8000
 1ca:	5b01                	li	s6,-32
 1cc:	0002c407          	flq	fs0,0(t0)
 1d0:	1480                	addi	s0,sp,608
 1d2:	04800003          	lb	zero,72(zero) # 48 <_heap_size+0x48>
 1d6:	9f5b01a3          	sb	s5,-1565(s6) # 1100fd95 <_stack_size+0x1100f595>
 1da:	00031407          	0x31407
 1de:	4880                	lw	s0,16(s1)
 1e0:	01800003          	lb	zero,24(zero) # 18 <_heap_size+0x18>
 1e4:	0348075b          	0x348075b
 1e8:	8000                	0x8000
 1ea:	03a0                	addi	s0,sp,456
 1ec:	8000                	0x8000
 1ee:	a304                	fsd	fs1,0(a4)
 1f0:	5b01                	li	s6,-32
 1f2:	079f 03a0 8000      	0x800003a0079f
 1f8:	03a8                	addi	a0,sp,456
 1fa:	8000                	0x8000
 1fc:	5801                	li	a6,-32
 1fe:	0003a807          	flw	fa6,0(t2)
 202:	f480                	fsw	fs0,40(s1)
 204:	04800003          	lb	zero,72(zero) # 48 <_heap_size+0x48>
 208:	9f5b01a3          	sb	s5,-1565(s6)
 20c:	0700                	addi	s0,sp,896
 20e:	0274                	addi	a3,sp,268
 210:	8000                	0x8000
 212:	02c4                	addi	s1,sp,324
 214:	8000                	0x8000
 216:	5c01                	li	s8,-32
 218:	0002c407          	flq	fs0,0(t0)
 21c:	1480                	addi	s0,sp,608
 21e:	04800003          	lb	zero,72(zero) # 48 <_heap_size+0x48>
 222:	9f5c01a3          	sb	s5,-1565(s8)
 226:	00031407          	0x31407
 22a:	4880                	lw	s0,16(s1)
 22c:	01800003          	lb	zero,24(zero) # 18 <_heap_size+0x18>
 230:	075c                	addi	a5,sp,900
 232:	0348                	addi	a0,sp,388
 234:	8000                	0x8000
 236:	03a0                	addi	s0,sp,456
 238:	8000                	0x8000
 23a:	a304                	fsd	fs1,0(a4)
 23c:	5c01                	li	s8,-32
 23e:	079f 03a0 8000      	0x800003a0079f
 244:	03a8                	addi	a0,sp,456
 246:	8000                	0x8000
 248:	5c01                	li	s8,-32
 24a:	0003a807          	flw	fa6,0(t2)
 24e:	f480                	fsw	fs0,40(s1)
 250:	04800003          	lb	zero,72(zero) # 48 <_heap_size+0x48>
 254:	9f5c01a3          	sb	s5,-1565(s8)
 258:	0700                	addi	s0,sp,896
 25a:	0298                	addi	a4,sp,320
 25c:	8000                	0x8000
 25e:	02b8                	addi	a4,sp,328
 260:	8000                	0x8000
 262:	5a01                	li	s4,-32
 264:	0002b807          	fld	fa6,0(t0)
 268:	c480                	sw	s0,8(s1)
 26a:	0002                	c.slli64	zero
 26c:	0180                	addi	s0,sp,192
 26e:	075f 02f0 8000      	0x800002f0075f
 274:	0348                	addi	a0,sp,388
 276:	8000                	0x8000
 278:	5f01                	li	t5,-32
 27a:	0003a007          	flw	ft0,0(t2)
 27e:	a880                	fsd	fs0,16(s1)
 280:	01800003          	lb	zero,24(zero) # 18 <_heap_size+0x18>
 284:	075a                	slli	a4,a4,0x16
 286:	03a8                	addi	a0,sp,456
 288:	8000                	0x8000
 28a:	800003bf e0075f01 	0xe0075f01800003bf
 292:	ef800003          	lb	zero,-264(zero) # fffffef8 <_stack_start+0x7fffe338>
 296:	01800003          	lb	zero,24(zero) # 18 <_heap_size+0x18>
 29a:	005f 9c07 0002      	0x29c07005f
 2a0:	b880                	fsd	fs0,48(s1)
 2a2:	0002                	c.slli64	zero
 2a4:	0180                	addi	s0,sp,192
 2a6:	02b8075b          	0x2b8075b
 2aa:	8000                	0x8000
 2ac:	02c4                	addi	s1,sp,324
 2ae:	8000                	0x8000
 2b0:	5801                	li	a6,-32
 2b2:	0002f007          	0x2f007
 2b6:	fc80                	fsw	fs0,56(s1)
 2b8:	0002                	c.slli64	zero
 2ba:	0180                	addi	s0,sp,192
 2bc:	0758                	addi	a4,sp,900
 2be:	0314                	addi	a3,sp,384
 2c0:	8000                	0x8000
 2c2:	0348                	addi	a0,sp,388
 2c4:	8000                	0x8000
 2c6:	5801                	li	a6,-32
 2c8:	0003a007          	flw	ft0,0(t2)
 2cc:	c880                	sw	s0,16(s1)
 2ce:	01800003          	lb	zero,24(zero) # 18 <_heap_size+0x18>
 2d2:	0758                	addi	a4,sp,900
 2d4:	03e0                	addi	s0,sp,460
 2d6:	8000                	0x8000
 2d8:	03f4                	addi	a3,sp,460
 2da:	8000                	0x8000
 2dc:	5801                	li	a6,-32
 2de:	0700                	addi	s0,sp,896
 2e0:	02a0                	addi	s0,sp,328
 2e2:	8000                	0x8000
 2e4:	0304                	addi	s1,sp,384
 2e6:	8000                	0x8000
 2e8:	6201                	0x6201
 2ea:	00030407          	0x30407
 2ee:	0c80                	addi	s0,sp,592
 2f0:	07800003          	lb	zero,120(zero) # 78 <_heap_size+0x78>
 2f4:	01a30083          	lb	ra,26(t1)
 2f8:	225c                	fld	fa5,128(a2)
 2fa:	079f 030c 8000      	0x8000030c079f
 300:	0314                	addi	a3,sp,384
 302:	8000                	0x8000
 304:	a3007a07          	0xa3007a07
 308:	5c01                	li	s8,-32
 30a:	9f22                	add	t5,t5,s0
 30c:	00031407          	0x31407
 310:	d080                	sw	s0,32(s1)
 312:	01800003          	lb	zero,24(zero) # 18 <_heap_size+0x18>
 316:	0762                	slli	a4,a4,0x18
 318:	03d0                	addi	a2,sp,452
 31a:	8000                	0x8000
 31c:	03d8                	addi	a4,sp,452
 31e:	8000                	0x8000
 320:	a3008307          	0xa3008307
 324:	5c01                	li	s8,-32
 326:	9f22                	add	t5,t5,s0
 328:	0003d807          	0x3d807
 32c:	e080                	fsw	fs0,0(s1)
 32e:	07800003          	lb	zero,120(zero) # 78 <_heap_size+0x78>
 332:	007a                	c.slli	zero,0x1e
 334:	225c01a3          	sb	t0,547(s8)
 338:	079f 03e0 8000      	0x800003e0079f
 33e:	03f4                	addi	a3,sp,460
 340:	8000                	0x8000
 342:	6201                	0x6201
 344:	0700                	addi	s0,sp,896
 346:	02b8                	addi	a4,sp,328
 348:	8000                	0x8000
 34a:	800002e7          	jalr	t0,-2048(zero) # 0 <_heap_size>
 34e:	5f01                	li	t5,-32
 350:	00034807          	flq	fa6,0(t1)
 354:	7080                	flw	fs0,32(s1)
 356:	01800003          	lb	zero,24(zero) # 18 <_heap_size+0x18>
 35a:	075f 0370 8000      	0x80000370075f
 360:	0398                	addi	a4,sp,448
 362:	8000                	0x8000
 364:	9f5c7f03          	0x9f5c7f03
 368:	00039807          	0x39807
 36c:	a080                	fsd	fs0,0(s1)
 36e:	01800003          	lb	zero,24(zero) # 18 <_heap_size+0x18>
 372:	005f b807 0002      	0x2b807005f
 378:	e880                	fsw	fs0,16(s1)
 37a:	0002                	c.slli64	zero
 37c:	0180                	addi	s0,sp,192
 37e:	0758                	addi	a4,sp,900
 380:	0348                	addi	a0,sp,388
 382:	8000                	0x8000
 384:	036c                	addi	a1,sp,396
 386:	8000                	0x8000
 388:	9f047803          	0x9f047803
 38c:	00036c07          	0x36c07
 390:	9880                	0x9880
 392:	03800003          	lb	zero,56(zero) # 38 <_heap_size+0x38>
 396:	2078                	fld	fa4,192(s0)
 398:	079f 0398 8000      	0x80000398079f
 39e:	03a0                	addi	s0,sp,456
 3a0:	8000                	0x8000
 3a2:	5801                	li	a6,-32
 3a4:	0700                	addi	s0,sp,896
 3a6:	02bc                	addi	a5,sp,328
 3a8:	8000                	0x8000
 3aa:	800002e7          	jalr	t0,-2048(zero) # 0 <_heap_size>
 3ae:	5e01                	li	t3,-32
 3b0:	0002e707          	0x2e707
 3b4:	f480                	fsw	fs0,40(s1)
 3b6:	0002                	c.slli64	zero
 3b8:	0680                	addi	s0,sp,832
 3ba:	0082                	c.slli64	ra
 3bc:	fc09                	bnez	s0,2d6 <_heap_size+0x2d6>
 3be:	9f1a                	add	t5,t5,t1
 3c0:	00034807          	flq	fa6,0(t1)
 3c4:	a080                	fsd	fs0,0(s1)
 3c6:	01800003          	lb	zero,24(zero) # 18 <_heap_size+0x18>
 3ca:	005e                	c.slli	zero,0x17
 3cc:	00031807          	0x31807
 3d0:	2880                	fld	fs0,16(s1)
 3d2:	02800003          	lb	zero,40(zero) # 28 <_heap_size+0x28>
 3d6:	0078                	addi	a4,sp,12
 3d8:	00032807          	flw	fa6,0(t1)
 3dc:	3080                	fld	fs0,32(s1)
 3de:	02800003          	lb	zero,40(zero) # 28 <_heap_size+0x28>
 3e2:	7f78                	flw	fa4,124(a4)
 3e4:	00033007          	fld	ft0,0(t1)
 3e8:	4080                	lw	s0,0(s1)
 3ea:	02800003          	lb	zero,40(zero) # 28 <_heap_size+0x28>
 3ee:	0078                	addi	a4,sp,12
 3f0:	00034007          	flq	ft0,0(t1)
 3f4:	4880                	lw	s0,16(s1)
 3f6:	02800003          	lb	zero,40(zero) # 28 <_heap_size+0x28>
 3fa:	7f78                	flw	fa4,124(a4)
 3fc:	0700                	addi	s0,sp,896
 3fe:	036c                	addi	a1,sp,396
 400:	8000                	0x8000
 402:	03a0                	addi	s0,sp,456
 404:	8000                	0x8000
 406:	6e01                	0x6e01
 408:	0700                	addi	s0,sp,896
 40a:	036c                	addi	a1,sp,396
 40c:	8000                	0x8000
 40e:	03a0                	addi	s0,sp,456
 410:	8000                	0x8000
 412:	6d01                	0x6d01
 414:	0700                	addi	s0,sp,896
 416:	036c                	addi	a1,sp,396
 418:	8000                	0x8000
 41a:	03a0                	addi	s0,sp,456
 41c:	8000                	0x8000
 41e:	6c01                	0x6c01
 420:	0700                	addi	s0,sp,896
 422:	036c                	addi	a1,sp,396
 424:	8000                	0x8000
 426:	03a0                	addi	s0,sp,456
 428:	8000                	0x8000
 42a:	5601                	li	a2,-32
 42c:	0700                	addi	s0,sp,896
 42e:	036c                	addi	a1,sp,396
 430:	8000                	0x8000
 432:	03a0                	addi	s0,sp,456
 434:	8000                	0x8000
 436:	6101                	addi	sp,sp,0
 438:	0700                	addi	s0,sp,896
 43a:	036c                	addi	a1,sp,396
 43c:	8000                	0x8000
 43e:	03a0                	addi	s0,sp,456
 440:	8000                	0x8000
 442:	6001                	0x6001
 444:	0700                	addi	s0,sp,896
 446:	036c                	addi	a1,sp,396
 448:	8000                	0x8000
 44a:	03a0                	addi	s0,sp,456
 44c:	8000                	0x8000
 44e:	5a01                	li	s4,-32
 450:	0700                	addi	s0,sp,896
 452:	036c                	addi	a1,sp,396
 454:	8000                	0x8000
 456:	03a0                	addi	s0,sp,456
 458:	8000                	0x8000
 45a:	5b01                	li	s6,-32
 45c:	0700                	addi	s0,sp,896
 45e:	0398                	addi	a4,sp,448
 460:	8000                	0x8000
 462:	03a0                	addi	s0,sp,456
 464:	8000                	0x8000
 466:	7802                	flw	fa6,32(sp)
 468:	007c                	addi	a5,sp,12
 46a:	00000a97          	auipc	s5,0x0
 46e:	0005                	c.nop	1
 470:	0004                	0x4
 472:	0000                	unimp
 474:	0000                	unimp
 476:	000fec07          	0xfec07
 47a:	f480                	fsw	fs0,40(s1)
 47c:	0180000f          	fence	w,i
 480:	075a                	slli	a4,a4,0x16
 482:	0ff4                	addi	a3,sp,988
 484:	8000                	0x8000
 486:	80000ffb          	0x80000ffb
 48a:	5f01                	li	t5,-32
 48c:	000ffb07          	0xffb07
 490:	fc80                	fsw	fs0,56(s1)
 492:	0480000f          	fence	o,i
 496:	9f5a01a3          	sb	s5,-1565(s4)
 49a:	0700                	addi	s0,sp,896
 49c:	0fec                	addi	a1,sp,988
 49e:	8000                	0x8000
 4a0:	0ff8                	addi	a4,sp,988
 4a2:	8000                	0x8000
 4a4:	5b01                	li	s6,-32
 4a6:	000ff807          	0xff807
 4aa:	fb80                	fsw	fs0,48(a5)
 4ac:	0180000f          	fence	w,i
 4b0:	075a                	slli	a4,a4,0x16
 4b2:	80000ffb          	0x80000ffb
 4b6:	0ffc                	addi	a5,sp,988
 4b8:	8000                	0x8000
 4ba:	a304                	fsd	fs1,0(a4)
 4bc:	5b01                	li	s6,-32
 4be:	009f dc07 000f      	0xfdc07009f
 4c4:	e480                	fsw	fs0,8(s1)
 4c6:	0180000f          	fence	w,i
 4ca:	075a                	slli	a4,a4,0x16
 4cc:	0fe4                	addi	s1,sp,988
 4ce:	8000                	0x8000
 4d0:	80000feb          	0x80000feb
 4d4:	5f01                	li	t5,-32
 4d6:	000feb07          	0xfeb07
 4da:	ec80                	fsw	fs0,24(s1)
 4dc:	0480000f          	fence	o,i
 4e0:	9f5a01a3          	sb	s5,-1565(s4)
 4e4:	0700                	addi	s0,sp,896
 4e6:	0fdc                	addi	a5,sp,980
 4e8:	8000                	0x8000
 4ea:	0fe8                	addi	a0,sp,988
 4ec:	8000                	0x8000
 4ee:	5b01                	li	s6,-32
 4f0:	000fe807          	0xfe807
 4f4:	eb80                	fsw	fs0,16(a5)
 4f6:	0180000f          	fence	w,i
 4fa:	075a                	slli	a4,a4,0x16
 4fc:	80000feb          	0x80000feb
 500:	0fec                	addi	a1,sp,988
 502:	8000                	0x8000
 504:	a304                	fsd	fs1,0(a4)
 506:	5b01                	li	s6,-32
 508:	009f 4007 000f      	0xf4007009f
 50e:	6080                	flw	fs0,0(s1)
 510:	0180000f          	fence	w,i
 514:	075a                	slli	a4,a4,0x16
 516:	0f60                	addi	s0,sp,924
 518:	8000                	0x8000
 51a:	0fcc                	addi	a1,sp,980
 51c:	8000                	0x8000
 51e:	5901                	li	s2,-32
 520:	000fcc07          	flq	fs8,0(t6)
 524:	d780                	sw	s0,40(a5)
 526:	0180000f          	fence	w,i
 52a:	0fd7075b          	0xfd7075b
 52e:	8000                	0x8000
 530:	0fd8                	addi	a4,sp,980
 532:	8000                	0x8000
 534:	a304                	fsd	fs1,0(a4)
 536:	5a01                	li	s4,-32
 538:	009f 4007 000f      	0xf4007009f
 53e:	5c80                	lw	s0,56(s1)
 540:	0180000f          	fence	w,i
 544:	0f5c075b          	0xf5c075b
 548:	8000                	0x8000
 54a:	80000f6f          	jal	t5,fff0054a <_stack_start+0x7fefe98a>
 54e:	5c01                	li	s8,-32
 550:	000f6f07          	0xf6f07
 554:	c880                	sw	s0,16(s1)
 556:	0180000f          	fence	w,i
 55a:	0762                	slli	a4,a4,0x18
 55c:	0fc8                	addi	a0,sp,980
 55e:	8000                	0x8000
 560:	80000fd7          	0x80000fd7
 564:	5c01                	li	s8,-32
 566:	000fd707          	0xfd707
 56a:	d880                	sw	s0,48(s1)
 56c:	0480000f          	fence	o,i
 570:	9f5b01a3          	sb	s5,-1565(s6)
 574:	0700                	addi	s0,sp,896
 576:	0f40                	addi	s0,sp,916
 578:	8000                	0x8000
 57a:	0f70                	addi	a2,sp,924
 57c:	8000                	0x8000
 57e:	3002                	fld	ft0,32(sp)
 580:	079f 0f70 8000      	0x80000f70079f
 586:	0f94                	addi	a3,sp,976
 588:	8000                	0x8000
 58a:	5801                	li	a6,-32
 58c:	000fa007          	flw	ft0,0(t6)
 590:	b880                	fsd	fs0,48(s1)
 592:	0180000f          	fence	w,i
 596:	0058                	addi	a4,sp,4
 598:	000e8007          	0xe8007
 59c:	bc80                	fsd	fs0,56(s1)
 59e:	000e                	c.slli	zero,0x3
 5a0:	0180                	addi	s0,sp,192
 5a2:	075a                	slli	a4,a4,0x16
 5a4:	0ebc                	addi	a5,sp,856
 5a6:	8000                	0x8000
 5a8:	0f30                	addi	a2,sp,920
 5aa:	8000                	0x8000
 5ac:	5901                	li	s2,-32
 5ae:	000f3007          	fld	ft0,0(t5) # fffe6000 <_stack_start+0x7ffe4440>
 5b2:	4080                	lw	s0,0(s1)
 5b4:	0480000f          	fence	o,i
 5b8:	9f5a01a3          	sb	s5,-1565(s4)
 5bc:	0700                	addi	s0,sp,896
 5be:	0e80                	addi	s0,sp,848
 5c0:	8000                	0x8000
 5c2:	0eb8                	addi	a4,sp,856
 5c4:	8000                	0x8000
 5c6:	5b01                	li	s6,-32
 5c8:	000eb807          	fld	fa6,0(t4)
 5cc:	bf80                	fsd	fs0,56(a5)
 5ce:	000e                	c.slli	zero,0x3
 5d0:	0180                	addi	s0,sp,192
 5d2:	075c                	addi	a5,sp,900
 5d4:	80000ebf 80000f34 	0x80000f3480000ebf
 5dc:	6201                	0x6201
 5de:	000f3407          	fld	fs0,0(t5)
 5e2:	4080                	lw	s0,0(s1)
 5e4:	0480000f          	fence	o,i
 5e8:	9f5b01a3          	sb	s5,-1565(s6)
 5ec:	0700                	addi	s0,sp,896
 5ee:	0e80                	addi	s0,sp,848
 5f0:	8000                	0x8000
 5f2:	0ec0                	addi	s0,sp,852
 5f4:	8000                	0x8000
 5f6:	3002                	fld	ft0,32(sp)
 5f8:	079f 0ec0 8000      	0x80000ec0079f
 5fe:	0ec8                	addi	a0,sp,852
 600:	8000                	0x8000
 602:	3102                	fld	ft2,32(sp)
 604:	079f 0ec8 8000      	0x80000ec8079f
 60a:	0ee8                	addi	a0,sp,860
 60c:	8000                	0x8000
 60e:	5801                	li	a6,-32
 610:	000ef807          	0xef807
 614:	2480                	fld	fs0,8(s1)
 616:	0180000f          	fence	w,i
 61a:	0058                	addi	a4,sp,4
 61c:	000e2007          	flw	ft0,0(t3) # 3f01251e <_stack_size+0x3f011d1e>
 620:	5080                	lw	s0,32(s1)
 622:	000e                	c.slli	zero,0x3
 624:	0280                	addi	s0,sp,320
 626:	0d7a                	slli	s10,s10,0x1e
 628:	000e5007          	0xe5007
 62c:	5c80                	lw	s0,56(s1)
 62e:	000e                	c.slli	zero,0x3
 630:	0180                	addi	s0,sp,192
 632:	076c                	addi	a1,sp,908
 634:	0e5c                	addi	a5,sp,788
 636:	8000                	0x8000
 638:	0e60                	addi	s0,sp,796
 63a:	8000                	0x8000
 63c:	7a02                	flw	fs4,32(sp)
 63e:	0702                	c.slli64	a4
 640:	0e60                	addi	s0,sp,796
 642:	8000                	0x8000
 644:	0e64                	addi	s1,sp,796
 646:	8000                	0x8000
 648:	6101                	addi	sp,sp,0
 64a:	000e6407          	0xe6407
 64e:	6880                	flw	fs0,16(s1)
 650:	000e                	c.slli	zero,0x3
 652:	0280                	addi	s0,sp,320
 654:	067a                	slli	a2,a2,0x1e
 656:	000e6807          	0xe6807
 65a:	6c80                	flw	fs0,24(s1)
 65c:	000e                	c.slli	zero,0x3
 65e:	0180                	addi	s0,sp,192
 660:	0e6c075b          	0xe6c075b
 664:	8000                	0x8000
 666:	0e70                	addi	a2,sp,796
 668:	8000                	0x8000
 66a:	7a02                	flw	fs4,32(sp)
 66c:	0e700703          	lb	a4,231(zero) # e7 <_heap_size+0xe7>
 670:	8000                	0x8000
 672:	0e80                	addi	s0,sp,848
 674:	8000                	0x8000
 676:	5f01                	li	t5,-32
 678:	0700                	addi	s0,sp,896
 67a:	0d10                	addi	a2,sp,656
 67c:	8000                	0x8000
 67e:	0dbc                	addi	a5,sp,728
 680:	8000                	0x8000
 682:	3002                	fld	ft0,32(sp)
 684:	079f 0dbc 8000      	0x80000dbc079f
 68a:	0dc4                	addi	s1,sp,724
 68c:	8000                	0x8000
 68e:	3102                	fld	ft2,32(sp)
 690:	079f 0dc4 8000      	0x80000dc4079f
 696:	0e08                	addi	a0,sp,784
 698:	8000                	0x8000
 69a:	3202                	fld	ft4,32(sp)
 69c:	079f 0e08 8000      	0x80000e08079f
 6a2:	0e18                	addi	a4,sp,784
 6a4:	8000                	0x8000
 6a6:	3302                	fld	ft6,32(sp)
 6a8:	079f 0e18 8000      	0x80000e18079f
 6ae:	0e1c                	addi	a5,sp,784
 6b0:	8000                	0x8000
 6b2:	3402                	fld	fs0,32(sp)
 6b4:	009f 1007 000d      	0xd1007009f
 6ba:	b080                	fsd	fs0,32(s1)
 6bc:	000d                	c.nop	3
 6be:	0280                	addi	s0,sp,320
 6c0:	9f30                	0x9f30
 6c2:	000db007          	fld	ft0,0(s11) # 2693f000 <_stack_size+0x2693e800>
 6c6:	b480                	fsd	fs0,40(s1)
 6c8:	000d                	c.nop	3
 6ca:	0280                	addi	s0,sp,320
 6cc:	9f31                	0x9f31
 6ce:	000db407          	fld	fs0,0(s11)
 6d2:	b880                	fsd	fs0,48(s1)
 6d4:	000d                	c.nop	3
 6d6:	0280                	addi	s0,sp,320
 6d8:	9f32                	add	t5,t5,a2
 6da:	000db807          	fld	fa6,0(s11)
 6de:	bc80                	fsd	fs0,56(s1)
 6e0:	000d                	c.nop	3
 6e2:	0280                	addi	s0,sp,320
 6e4:	bc079f33          	0xbc079f33
 6e8:	000d                	c.nop	3
 6ea:	c080                	sw	s0,0(s1)
 6ec:	000d                	c.nop	3
 6ee:	0280                	addi	s0,sp,320
 6f0:	9f30                	0x9f30
 6f2:	000dc007          	flq	ft0,0(s11)
 6f6:	c480                	sw	s0,8(s1)
 6f8:	000d                	c.nop	3
 6fa:	0280                	addi	s0,sp,320
 6fc:	9f31                	0x9f31
 6fe:	000dc407          	flq	fs0,0(s11)
 702:	c880                	sw	s0,16(s1)
 704:	000d                	c.nop	3
 706:	0280                	addi	s0,sp,320
 708:	9f32                	add	t5,t5,a2
 70a:	000dc807          	flq	fa6,0(s11)
 70e:	0880                	addi	s0,sp,80
 710:	000e                	c.slli	zero,0x3
 712:	0280                	addi	s0,sp,320
 714:	08079f33          	0x8079f33
 718:	000e                	c.slli	zero,0x3
 71a:	0c80                	addi	s0,sp,592
 71c:	000e                	c.slli	zero,0x3
 71e:	0280                	addi	s0,sp,320
 720:	9f30                	0x9f30
 722:	000e0c07          	0xe0c07
 726:	1080                	addi	s0,sp,96
 728:	000e                	c.slli	zero,0x3
 72a:	0280                	addi	s0,sp,320
 72c:	9f31                	0x9f31
 72e:	000e1007          	0xe1007
 732:	1480                	addi	s0,sp,608
 734:	000e                	c.slli	zero,0x3
 736:	0280                	addi	s0,sp,320
 738:	9f32                	add	t5,t5,a2
 73a:	000e1407          	0xe1407
 73e:	1880                	addi	s0,sp,112
 740:	000e                	c.slli	zero,0x3
 742:	0280                	addi	s0,sp,320
 744:	18079f33          	0x18079f33
 748:	000e                	c.slli	zero,0x3
 74a:	1c80                	addi	s0,sp,624
 74c:	000e                	c.slli	zero,0x3
 74e:	0280                	addi	s0,sp,320
 750:	9f34                	0x9f34
 752:	0700                	addi	s0,sp,896
 754:	0b40                	addi	s0,sp,404
 756:	8000                	0x8000
 758:	0b84                	addi	s1,sp,464
 75a:	8000                	0x8000
 75c:	5a01                	li	s4,-32
 75e:	000b8407          	0xb8407
 762:	0c80                	addi	s0,sp,592
 764:	000d                	c.nop	3
 766:	0780                	addi	s0,sp,960
 768:	bc91                	j	1bc <_heap_size+0x1bc>
 76a:	067f                	0x67f
 76c:	1c40                	addi	s0,sp,564
 76e:	079f 0d0c 8000      	0x80000d0c079f
 774:	0d10                	addi	a2,sp,656
 776:	8000                	0x8000
 778:	7fbc7207          	0x7fbc7207
 77c:	4006                	0x4006
 77e:	9f1c                	0x9f1c
 780:	0700                	addi	s0,sp,896
 782:	0b40                	addi	s0,sp,404
 784:	8000                	0x8000
 786:	0b84                	addi	s1,sp,464
 788:	8000                	0x8000
 78a:	3002                	fld	ft0,32(sp)
 78c:	009f 8807 000b      	0xb8807009f
 792:	a080                	fsd	fs0,0(s1)
 794:	000c                	0xc
 796:	0180                	addi	s0,sp,192
 798:	006a                	c.slli	zero,0x1a
 79a:	000b8c07          	0xb8c07
 79e:	b080                	fsd	fs0,32(s1)
 7a0:	000c                	0xc
 7a2:	0180                	addi	s0,sp,192
 7a4:	0069                	c.nop	26
 7a6:	000b9007          	0xb9007
 7aa:	bc80                	fsd	fs0,56(s1)
 7ac:	000c                	0xc
 7ae:	0180                	addi	s0,sp,192
 7b0:	d8070067          	jr	-640(a4)
 7b4:	c080000b          	0xc080000b
 7b8:	000c                	0xc
 7ba:	0180                	addi	s0,sp,192
 7bc:	0068                	addi	a0,sp,12
 7be:	00095007          	0x95007
 7c2:	9080                	0x9080
 7c4:	0009                	c.nop	2
 7c6:	0180                	addi	s0,sp,192
 7c8:	075a                	slli	a4,a4,0x16
 7ca:	0990                	addi	a2,sp,208
 7cc:	8000                	0x8000
 7ce:	0b20                	addi	s0,sp,408
 7d0:	8000                	0x8000
 7d2:	5801                	li	a6,-32
 7d4:	000b2007          	flw	ft0,0(s6)
 7d8:	4080                	lw	s0,0(s1)
 7da:	0480000b          	0x480000b
 7de:	9f5a01a3          	sb	s5,-1565(s4)
 7e2:	0700                	addi	s0,sp,896
 7e4:	0950                	addi	a2,sp,148
 7e6:	8000                	0x8000
 7e8:	09f0                	addi	a2,sp,220
 7ea:	8000                	0x8000
 7ec:	3002                	fld	ft0,32(sp)
 7ee:	079f 09f0 8000      	0x800009f0079f
 7f4:	0a58                	addi	a4,sp,276
 7f6:	8000                	0x8000
 7f8:	3102                	fld	ft2,32(sp)
 7fa:	079f 0a58 8000      	0x80000a58079f
 800:	0ac8                	addi	a0,sp,340
 802:	8000                	0x8000
 804:	3202                	fld	ft4,32(sp)
 806:	079f 0ac8 8000      	0x80000ac8079f
 80c:	0b18                	addi	a4,sp,400
 80e:	8000                	0x8000
 810:	3302                	fld	ft6,32(sp)
 812:	079f 0b18 8000      	0x80000b18079f
 818:	0b40                	addi	s0,sp,404
 81a:	8000                	0x8000
 81c:	3402                	fld	fs0,32(sp)
 81e:	009f 9407 0009      	0x99407009f
 824:	e880                	fsw	fs0,16(s1)
 826:	0009                	c.nop	2
 828:	0180                	addi	s0,sp,192
 82a:	0759                	addi	a4,a4,22
 82c:	09fc                	addi	a5,sp,220
 82e:	8000                	0x8000
 830:	0ac0                	addi	s0,sp,340
 832:	8000                	0x8000
 834:	6501                	0x6501
 836:	000acc07          	flq	fs8,0(s5) # 46a <_heap_size+0x46a>
 83a:	3080                	fld	fs0,32(s1)
 83c:	0180000b          	0x180000b
 840:	0064                	addi	s1,sp,12
 842:	00099407          	0x99407
 846:	9780                	0x9780
 848:	0009                	c.nop	2
 84a:	0180                	addi	s0,sp,192
 84c:	075a                	slli	a4,a4,0x16
 84e:	80000997          	auipc	s3,0x80000
 852:	0998                	addi	a4,sp,208
 854:	8000                	0x8000
 856:	8306                	mv	t1,ra
 858:	8400                	0x8400
 85a:	2700                	fld	fs0,8(a4)
 85c:	079f 0998 8000      	0x80000998079f
 862:	09a0                	addi	s0,sp,216
 864:	8000                	0x8000
 866:	5a01                	li	s4,-32
 868:	0009a407          	flw	fs0,0(s3) # 8000084e <_stack_start+0xffffec8e>
 86c:	a880                	fsd	fs0,16(s1)
 86e:	0009                	c.nop	2
 870:	0680                	addi	s0,sp,832
 872:	0082                	c.slli64	ra
 874:	9f270083          	lb	ra,-1550(a4)
 878:	0009a807          	flw	fa6,0(s3)
 87c:	ab80                	fsd	fs0,16(a5)
 87e:	0009                	c.nop	2
 880:	0180                	addi	s0,sp,192
 882:	075a                	slli	a4,a4,0x16
 884:	800009ab          	0x800009ab
 888:	09ac                	addi	a1,sp,216
 88a:	8000                	0x8000
 88c:	8206                	mv	tp,ra
 88e:	8300                	0x8300
 890:	2700                	fld	fs0,8(a4)
 892:	079f 09ac 8000      	0x800009ac079f
 898:	09b4                	addi	a3,sp,216
 89a:	8000                	0x8000
 89c:	5a01                	li	s4,-32
 89e:	0009b807          	fld	fa6,0(s3)
 8a2:	c080                	sw	s0,0(s1)
 8a4:	0009                	c.nop	2
 8a6:	0180                	addi	s0,sp,192
 8a8:	0766                	slli	a4,a4,0x19
 8aa:	09c0                	addi	s0,sp,212
 8ac:	8000                	0x8000
 8ae:	09c8                	addi	a0,sp,212
 8b0:	8000                	0x8000
 8b2:	5a01                	li	s4,-32
 8b4:	0009cc07          	flq	fs8,0(s3)
 8b8:	d080                	sw	s0,32(s1)
 8ba:	0009                	c.nop	2
 8bc:	0680                	addi	s0,sp,832
 8be:	0085                	addi	ra,ra,1
 8c0:	0084                	addi	s1,sp,64
 8c2:	d0079f27          	0xd0079f27
 8c6:	0009                	c.nop	2
 8c8:	d380                	sw	s0,32(a5)
 8ca:	0009                	c.nop	2
 8cc:	0180                	addi	s0,sp,192
 8ce:	075a                	slli	a4,a4,0x16
 8d0:	800009d3          	0x800009d3
 8d4:	09d4                	addi	a3,sp,212
 8d6:	8000                	0x8000
 8d8:	8506                	mv	a0,ra
 8da:	8400                	0x8400
 8dc:	2700                	fld	fs0,8(a4)
 8de:	079f 09d4 8000      	0x800009d4079f
 8e4:	09f8                	addi	a4,sp,220
 8e6:	8000                	0x8000
 8e8:	5a01                	li	s4,-32
 8ea:	0009fc07          	0x9fc07
 8ee:	ff80                	fsw	fs0,56(a5)
 8f0:	0009                	c.nop	2
 8f2:	0180                	addi	s0,sp,192
 8f4:	075a                	slli	a4,a4,0x16
 8f6:	09ff                	0x9ff
 8f8:	8000                	0x8000
 8fa:	0a00                	addi	s0,sp,272
 8fc:	8000                	0x8000
 8fe:	8606                	mv	a2,ra
 900:	8400                	0x8400
 902:	2700                	fld	fs0,8(a4)
 904:	079f 0a00 8000      	0x80000a00079f
 90a:	0a08                	addi	a0,sp,272
 90c:	8000                	0x8000
 90e:	5a01                	li	s4,-32
 910:	000a0c07          	0xa0c07
 914:	1080                	addi	s0,sp,96
 916:	000a                	c.slli	zero,0x2
 918:	0680                	addi	s0,sp,832
 91a:	0084                	addi	s1,sp,64
 91c:	0082                	c.slli64	ra
 91e:	10079f27          	0x10079f27
 922:	000a                	c.slli	zero,0x2
 924:	1380                	addi	s0,sp,480
 926:	000a                	c.slli	zero,0x2
 928:	0180                	addi	s0,sp,192
 92a:	075a                	slli	a4,a4,0x16
 92c:	80000a13          	li	s4,-2048
 930:	0a14                	addi	a3,sp,272
 932:	8000                	0x8000
 934:	8406                	mv	s0,ra
 936:	8200                	0x8200
 938:	2700                	fld	fs0,8(a4)
 93a:	079f 0a14 8000      	0x80000a14079f
 940:	0a1c                	addi	a5,sp,272
 942:	8000                	0x8000
 944:	5a01                	li	s4,-32
 946:	000a2007          	flw	ft0,0(s4)
 94a:	2880                	fld	fs0,16(s1)
 94c:	000a                	c.slli	zero,0x2
 94e:	0180                	addi	s0,sp,192
 950:	0759                	addi	a4,a4,22
 952:	0a28                	addi	a0,sp,280
 954:	8000                	0x8000
 956:	0a30                	addi	a2,sp,280
 958:	8000                	0x8000
 95a:	5a01                	li	s4,-32
 95c:	000a3407          	fld	fs0,0(s4)
 960:	3880                	fld	fs0,48(s1)
 962:	000a                	c.slli	zero,0x2
 964:	0680                	addi	s0,sp,832
 966:	0086                	slli	ra,ra,0x1
 968:	9f270083          	lb	ra,-1550(a4)
 96c:	000a3807          	fld	fa6,0(s4)
 970:	3b80                	fld	fs0,48(a5)
 972:	000a                	c.slli	zero,0x2
 974:	0180                	addi	s0,sp,192
 976:	075a                	slli	a4,a4,0x16
 978:	80000a3b          	0x80000a3b
 97c:	0a3c                	addi	a5,sp,280
 97e:	8000                	0x8000
 980:	8606                	mv	a2,ra
 982:	8300                	0x8300
 984:	2700                	fld	fs0,8(a4)
 986:	079f 0a3c 8000      	0x80000a3c079f
 98c:	0a60                	addi	s0,sp,284
 98e:	8000                	0x8000
 990:	5a01                	li	s4,-32
 992:	000a6407          	0xa6407
 996:	6780                	flw	fs0,8(a5)
 998:	000a                	c.slli	zero,0x2
 99a:	0180                	addi	s0,sp,192
 99c:	075a                	slli	a4,a4,0x16
 99e:	80000a67          	jalr	s4,-2048(zero) # 0 <_heap_size>
 9a2:	0a68                	addi	a0,sp,284
 9a4:	8000                	0x8000
 9a6:	8606                	mv	a2,ra
 9a8:	8200                	0x8200
 9aa:	2700                	fld	fs0,8(a4)
 9ac:	079f 0a68 8000      	0x80000a68079f
 9b2:	0a70                	addi	a2,sp,284
 9b4:	8000                	0x8000
 9b6:	5a01                	li	s4,-32
 9b8:	000a7407          	0xa7407
 9bc:	7880                	flw	fs0,48(s1)
 9be:	000a                	c.slli	zero,0x2
 9c0:	0680                	addi	s0,sp,832
 9c2:	0082                	c.slli64	ra
 9c4:	0079                	c.nop	30
 9c6:	78079f27          	0x78079f27
 9ca:	000a                	c.slli	zero,0x2
 9cc:	7b80                	flw	fs0,48(a5)
 9ce:	000a                	c.slli	zero,0x2
 9d0:	0180                	addi	s0,sp,192
 9d2:	075a                	slli	a4,a4,0x16
 9d4:	80000a7b          	0x80000a7b
 9d8:	0a7c                	addi	a5,sp,284
 9da:	8000                	0x8000
 9dc:	8206                	mv	tp,ra
 9de:	7900                	flw	fs0,48(a0)
 9e0:	2700                	fld	fs0,8(a4)
 9e2:	079f 0a7c 8000      	0x80000a7c079f
 9e8:	0a84                	addi	s1,sp,336
 9ea:	8000                	0x8000
 9ec:	5a01                	li	s4,-32
 9ee:	000a8807          	0xa8807
 9f2:	9080                	0x9080
 9f4:	000a                	c.slli	zero,0x2
 9f6:	0180                	addi	s0,sp,192
 9f8:	0a900763          	beq	zero,s1,aa6 <_stack_size+0x2a6>
 9fc:	8000                	0x8000
 9fe:	0a98                	addi	a4,sp,336
 a00:	8000                	0x8000
 a02:	5a01                	li	s4,-32
 a04:	000a9c07          	0xa9c07
 a08:	a080                	fsd	fs0,0(s1)
 a0a:	000a                	c.slli	zero,0x2
 a0c:	0680                	addi	s0,sp,832
 a0e:	0086                	slli	ra,ra,0x1
 a10:	0084                	addi	s1,sp,64
 a12:	a0079f27          	0xa0079f27
 a16:	000a                	c.slli	zero,0x2
 a18:	a380                	fsd	fs0,0(a5)
 a1a:	000a                	c.slli	zero,0x2
 a1c:	0180                	addi	s0,sp,192
 a1e:	075a                	slli	a4,a4,0x16
 a20:	80000aa3          	sb	zero,-2027(zero) # fffff815 <_stack_start+0x7fffdc55>
 a24:	0aa4                	addi	s1,sp,344
 a26:	8000                	0x8000
 a28:	8606                	mv	a2,ra
 a2a:	8400                	0x8400
 a2c:	2700                	fld	fs0,8(a4)
 a2e:	079f 0aa4 8000      	0x80000aa4079f
 a34:	0ac4                	addi	s1,sp,340
 a36:	8000                	0x8000
 a38:	5a01                	li	s4,-32
 a3a:	000acc07          	flq	fs8,0(s5)
 a3e:	cf80                	sw	s0,24(a5)
 a40:	000a                	c.slli	zero,0x2
 a42:	0180                	addi	s0,sp,192
 a44:	075a                	slli	a4,a4,0x16
 a46:	80000acf          	fnmadd.s	fs5,ft0,ft0,fa6,rne
 a4a:	0ad0                	addi	a2,sp,340
 a4c:	8000                	0x8000
 a4e:	8306                	mv	t1,ra
 a50:	8600                	0x8600
 a52:	2700                	fld	fs0,8(a4)
 a54:	079f 0ad0 8000      	0x80000ad0079f
 a5a:	0ad8                	addi	a4,sp,340
 a5c:	8000                	0x8000
 a5e:	5a01                	li	s4,-32
 a60:	000adc07          	0xadc07
 a64:	e080                	fsw	fs0,0(s1)
 a66:	000a                	c.slli	zero,0x2
 a68:	0680                	addi	s0,sp,832
 a6a:	00820083          	lb	ra,8(tp) # fffe3008 <_stack_start+0x7ffe1448>
 a6e:	e0079f27          	0xe0079f27
 a72:	000a                	c.slli	zero,0x2
 a74:	e380                	fsw	fs0,0(a5)
 a76:	000a                	c.slli	zero,0x2
 a78:	0180                	addi	s0,sp,192
 a7a:	075a                	slli	a4,a4,0x16
 a7c:	80000ae3          	beqz	zero,290 <_heap_size+0x290>
 a80:	0ae4                	addi	s1,sp,348
 a82:	8000                	0x8000
 a84:	8306                	mv	t1,ra
 a86:	8200                	0x8200
 a88:	2700                	fld	fs0,8(a4)
 a8a:	079f 0ae4 8000      	0x80000ae4079f
 a90:	0aec                	addi	a1,sp,348
 a92:	8000                	0x8000
 a94:	5a01                	li	s4,-32
 a96:	000af007          	0xaf007
 a9a:	f880                	fsw	fs0,48(s1)
 a9c:	000a                	c.slli	zero,0x2
 a9e:	0180                	addi	s0,sp,192
 aa0:	0765                	addi	a4,a4,25
 aa2:	0af8                	addi	a4,sp,348
 aa4:	8000                	0x8000
 aa6:	0b00                	addi	s0,sp,400
 aa8:	8000                	0x8000
 aaa:	5a01                	li	s4,-32
 aac:	000b0407          	0xb0407
 ab0:	0880                	addi	s0,sp,80
 ab2:	0680000b          	0x680000b
 ab6:	0079                	c.nop	30
 ab8:	0086                	slli	ra,ra,0x1
 aba:	08079f27          	0x8079f27
 abe:	0b80000b          	0xb80000b
 ac2:	0180000b          	0x180000b
 ac6:	075a                	slli	a4,a4,0x16
 ac8:	80000b0b          	0x80000b0b
 acc:	0b0c                	addi	a1,sp,400
 ace:	8000                	0x8000
 ad0:	7906                	flw	fs2,96(sp)
 ad2:	8600                	0x8600
 ad4:	2700                	fld	fs0,8(a4)
 ad6:	079f 0b0c 8000      	0x80000b0c079f
 adc:	0b14                	addi	a3,sp,400
 ade:	8000                	0x8000
 ae0:	5a01                	li	s4,-32
 ae2:	0700                	addi	s0,sp,896
 ae4:	097c                	addi	a5,sp,156
 ae6:	8000                	0x8000
 ae8:	09dc                	addi	a5,sp,212
 aea:	8000                	0x8000
 aec:	6401                	0x6401
 aee:	0009f007          	0x9f007
 af2:	4080                	lw	s0,0(s1)
 af4:	000a                	c.slli	zero,0x2
 af6:	0180                	addi	s0,sp,192
 af8:	0766                	slli	a4,a4,0x19
 afa:	0a58                	addi	a4,sp,276
 afc:	8000                	0x8000
 afe:	0aa8                	addi	a0,sp,344
 b00:	8000                	0x8000
 b02:	6601                	0x6601
 b04:	000ac807          	flq	fa6,0(s5)
 b08:	3880                	fld	fs0,48(s1)
 b0a:	0180000b          	0x180000b
 b0e:	0066                	c.slli	zero,0x19
 b10:	00092c07          	flw	fs8,0(s2)
 b14:	4480                	lw	s0,8(s1)
 b16:	0009                	c.nop	2
 b18:	0180                	addi	s0,sp,192
 b1a:	075a                	slli	a4,a4,0x16
 b1c:	0944                	addi	s1,sp,148
 b1e:	8000                	0x8000
 b20:	0950                	addi	a2,sp,148
 b22:	8000                	0x8000
 b24:	a304                	fsd	fs1,0(a4)
 b26:	5a01                	li	s4,-32
 b28:	009f cc07 0008      	0x8cc07009f
 b2e:	fc80                	fsw	fs0,56(s1)
 b30:	0008                	0x8
 b32:	0280                	addi	s0,sp,320
 b34:	017a                	slli	sp,sp,0x1e
 b36:	0008fc07          	0x8fc07
 b3a:	0880                	addi	s0,sp,80
 b3c:	0009                	c.nop	2
 b3e:	0180                	addi	s0,sp,192
 b40:	076c                	addi	a1,sp,908
 b42:	0908                	addi	a0,sp,144
 b44:	8000                	0x8000
 b46:	090c                	addi	a1,sp,144
 b48:	8000                	0x8000
 b4a:	7a02                	flw	fs4,32(sp)
 b4c:	0702                	c.slli64	a4
 b4e:	090c                	addi	a1,sp,144
 b50:	8000                	0x8000
 b52:	0910                	addi	a2,sp,144
 b54:	8000                	0x8000
 b56:	6101                	addi	sp,sp,0
 b58:	00091007          	0x91007
 b5c:	1480                	addi	s0,sp,608
 b5e:	0009                	c.nop	2
 b60:	0280                	addi	s0,sp,320
 b62:	067a                	slli	a2,a2,0x1e
 b64:	00091407          	0x91407
 b68:	1880                	addi	s0,sp,112
 b6a:	0009                	c.nop	2
 b6c:	0180                	addi	s0,sp,192
 b6e:	0918075b          	0x918075b
 b72:	8000                	0x8000
 b74:	091c                	addi	a5,sp,144
 b76:	8000                	0x8000
 b78:	7a02                	flw	fs4,32(sp)
 b7a:	091c0703          	lb	a4,145(s8)
 b7e:	8000                	0x8000
 b80:	092c                	addi	a1,sp,152
 b82:	8000                	0x8000
 b84:	5f01                	li	t5,-32
 b86:	0700                	addi	s0,sp,896
 b88:	07bc                	addi	a5,sp,968
 b8a:	8000                	0x8000
 b8c:	0868                	addi	a0,sp,28
 b8e:	8000                	0x8000
 b90:	3002                	fld	ft0,32(sp)
 b92:	079f 0868 8000      	0x80000868079f
 b98:	0870                	addi	a2,sp,28
 b9a:	8000                	0x8000
 b9c:	3102                	fld	ft2,32(sp)
 b9e:	079f 0870 8000      	0x80000870079f
 ba4:	08b4                	addi	a3,sp,88
 ba6:	8000                	0x8000
 ba8:	3202                	fld	ft4,32(sp)
 baa:	079f 08b4 8000      	0x800008b4079f
 bb0:	08c4                	addi	s1,sp,84
 bb2:	8000                	0x8000
 bb4:	3302                	fld	ft6,32(sp)
 bb6:	079f 08c4 8000      	0x800008c4079f
 bbc:	08c8                	addi	a0,sp,84
 bbe:	8000                	0x8000
 bc0:	3402                	fld	fs0,32(sp)
 bc2:	009f bc07 0007      	0x7bc07009f
 bc8:	5c80                	lw	s0,56(s1)
 bca:	0008                	0x8
 bcc:	0280                	addi	s0,sp,320
 bce:	9f30                	0x9f30
 bd0:	00085c07          	0x85c07
 bd4:	6080                	flw	fs0,0(s1)
 bd6:	0008                	0x8
 bd8:	0280                	addi	s0,sp,320
 bda:	9f31                	0x9f31
 bdc:	00086007          	0x86007
 be0:	6480                	flw	fs0,8(s1)
 be2:	0008                	0x8
 be4:	0280                	addi	s0,sp,320
 be6:	9f32                	add	t5,t5,a2
 be8:	00086407          	0x86407
 bec:	6880                	flw	fs0,16(s1)
 bee:	0008                	0x8
 bf0:	0280                	addi	s0,sp,320
 bf2:	68079f33          	0x68079f33
 bf6:	0008                	0x8
 bf8:	6c80                	flw	fs0,24(s1)
 bfa:	0008                	0x8
 bfc:	0280                	addi	s0,sp,320
 bfe:	9f30                	0x9f30
 c00:	00086c07          	0x86c07
 c04:	7080                	flw	fs0,32(s1)
 c06:	0008                	0x8
 c08:	0280                	addi	s0,sp,320
 c0a:	9f31                	0x9f31
 c0c:	00087007          	0x87007
 c10:	7480                	flw	fs0,40(s1)
 c12:	0008                	0x8
 c14:	0280                	addi	s0,sp,320
 c16:	9f32                	add	t5,t5,a2
 c18:	00087407          	0x87407
 c1c:	b480                	fsd	fs0,40(s1)
 c1e:	0008                	0x8
 c20:	0280                	addi	s0,sp,320
 c22:	b4079f33          	0xb4079f33
 c26:	0008                	0x8
 c28:	b880                	fsd	fs0,48(s1)
 c2a:	0008                	0x8
 c2c:	0280                	addi	s0,sp,320
 c2e:	9f30                	0x9f30
 c30:	0008b807          	fld	fa6,0(a7)
 c34:	bc80                	fsd	fs0,56(s1)
 c36:	0008                	0x8
 c38:	0280                	addi	s0,sp,320
 c3a:	9f31                	0x9f31
 c3c:	0008bc07          	fld	fs8,0(a7)
 c40:	c080                	sw	s0,0(s1)
 c42:	0008                	0x8
 c44:	0280                	addi	s0,sp,320
 c46:	9f32                	add	t5,t5,a2
 c48:	0008c007          	flq	ft0,0(a7)
 c4c:	c480                	sw	s0,8(s1)
 c4e:	0008                	0x8
 c50:	0280                	addi	s0,sp,320
 c52:	c4079f33          	0xc4079f33
 c56:	0008                	0x8
 c58:	c880                	sw	s0,16(s1)
 c5a:	0008                	0x8
 c5c:	0280                	addi	s0,sp,320
 c5e:	9f34                	0x9f34
 c60:	0700                	addi	s0,sp,896
 c62:	06ac                	addi	a1,sp,840
 c64:	8000                	0x8000
 c66:	06b0                	addi	a2,sp,840
 c68:	8000                	0x8000
 c6a:	5a01                	li	s4,-32
 c6c:	0006b007          	fld	ft0,0(a3) # 8000 <_stack_size+0x7800>
 c70:	bc80                	fsd	fs0,56(s1)
 c72:	04800007          	0x4800007
 c76:	9f5a01a3          	sb	s5,-1565(s4)
 c7a:	0700                	addi	s0,sp,896
 c7c:	06ac                	addi	a1,sp,840
 c7e:	8000                	0x8000
 c80:	06b8                	addi	a4,sp,840
 c82:	8000                	0x8000
 c84:	5c01                	li	s8,-32
 c86:	0006b807          	fld	fa6,0(a3)
 c8a:	bc80                	fsd	fs0,56(s1)
 c8c:	04800007          	0x4800007
 c90:	9f5c01a3          	sb	s5,-1565(s8)
 c94:	0700                	addi	s0,sp,896
 c96:	06b4                	addi	a3,sp,840
 c98:	8000                	0x8000
 c9a:	06c4                	addi	s1,sp,836
 c9c:	8000                	0x8000
 c9e:	5a01                	li	s4,-32
 ca0:	0700                	addi	s0,sp,896
 ca2:	0fd8                	addi	a4,sp,980
 ca4:	8000                	0x8000
 ca6:	80000fdb          	0x80000fdb
 caa:	5a01                	li	s4,-32
 cac:	000fdb07          	0xfdb07
 cb0:	dc80                	sw	s0,56(s1)
 cb2:	0480000f          	fence	o,i
 cb6:	9f5a01a3          	sb	s5,-1565(s4)
 cba:	0700                	addi	s0,sp,896
 cbc:	0fd8                	addi	a4,sp,980
 cbe:	8000                	0x8000
 cc0:	80000fdb          	0x80000fdb
 cc4:	5b01                	li	s6,-32
 cc6:	000fdb07          	0xfdb07
 cca:	dc80                	sw	s0,56(s1)
 ccc:	0480000f          	fence	o,i
 cd0:	9f5b01a3          	sb	s5,-1565(s6)
 cd4:	0700                	addi	s0,sp,896
 cd6:	0468                	addi	a0,sp,524
 cd8:	8000                	0x8000
 cda:	0520                	addi	s0,sp,648
 cdc:	8000                	0x8000
 cde:	5a01                	li	s4,-32
 ce0:	00052007          	flw	ft0,0(a0) # 16136a0 <_stack_size+0x1612ea0>
 ce4:	2c80                	fld	fs0,24(s1)
 ce6:	0005                	c.nop	1
 ce8:	0380                	addi	s0,sp,448
 cea:	707a                	flw	ft0,188(sp)
 cec:	079f 052c 8000      	0x8000052c079f
 cf2:	0628                	addi	a0,sp,776
 cf4:	8000                	0x8000
 cf6:	a304                	fsd	fs1,0(a4)
 cf8:	5a01                	li	s4,-32
 cfa:	079f 0628 8000      	0x80000628079f
 d00:	06ac                	addi	a1,sp,840
 d02:	8000                	0x8000
 d04:	5a01                	li	s4,-32
 d06:	0700                	addi	s0,sp,896
 d08:	0468                	addi	a0,sp,524
 d0a:	8000                	0x8000
 d0c:	051c                	addi	a5,sp,640
 d0e:	8000                	0x8000
 d10:	5b01                	li	s6,-32
 d12:	00051c07          	0x51c07
 d16:	2880                	fld	fs0,16(s1)
 d18:	0006                	c.slli	zero,0x1
 d1a:	0480                	addi	s0,sp,576
 d1c:	9f5b01a3          	sb	s5,-1565(s6)
 d20:	00062807          	flw	fa6,0(a2)
 d24:	ac80                	fsd	fs0,24(s1)
 d26:	0006                	c.slli	zero,0x1
 d28:	0180                	addi	s0,sp,192
 d2a:	6807005b          	0x6807005b
 d2e:	0004                	0x4
 d30:	b480                	fsd	fs0,40(s1)
 d32:	0004                	0x4
 d34:	0280                	addi	s0,sp,320
 d36:	9f30                	0x9f30
 d38:	00052c07          	flw	fs8,0(a0)
 d3c:	2880                	fld	fs0,16(s1)
 d3e:	0006                	c.slli	zero,0x1
 d40:	0180                	addi	s0,sp,192
 d42:	0628075b          	0x628075b
 d46:	8000                	0x8000
 d48:	0648                	addi	a0,sp,772
 d4a:	8000                	0x8000
 d4c:	3002                	fld	ft0,32(sp)
 d4e:	079f 0648 8000      	0x80000648079f
 d54:	0668                	addi	a0,sp,780
 d56:	8000                	0x8000
 d58:	3102                	fld	ft2,32(sp)
 d5a:	079f 0668 8000      	0x80000668079f
 d60:	0688                	addi	a0,sp,832
 d62:	8000                	0x8000
 d64:	3202                	fld	ft4,32(sp)
 d66:	079f 0688 8000      	0x80000688079f
 d6c:	06a8                	addi	a0,sp,840
 d6e:	8000                	0x8000
 d70:	3302                	fld	ft6,32(sp)
 d72:	079f 06a8 8000      	0x800006a8079f
 d78:	06ac                	addi	a1,sp,840
 d7a:	8000                	0x8000
 d7c:	3402                	fld	fs0,32(sp)
 d7e:	009f 4407 0005      	0x54407009f
 d84:	ac80                	fsd	fs0,24(s1)
 d86:	0005                	c.nop	1
 d88:	0780                	addi	s0,sp,960
 d8a:	007a                	c.slli	zero,0x1e
 d8c:	1c5a01a3          	sb	t0,451(s4)
 d90:	079f 05ac 8000      	0x800005ac079f
 d96:	05c0                	addi	s0,sp,708
 d98:	8000                	0x8000
 d9a:	7a09                	lui	s4,0xfffe2
 d9c:	a300                	fsd	fs0,0(a4)
 d9e:	5a01                	li	s4,-32
 da0:	341c                	fld	fa5,40(s0)
 da2:	9f1c                	0x9f1c
 da4:	0005f407          	0x5f407
 da8:	2880                	fld	fs0,16(s1)
 daa:	0006                	c.slli	zero,0x1
 dac:	0980                	addi	s0,sp,208
 dae:	007a                	c.slli	zero,0x1e
 db0:	1c5a01a3          	sb	t0,451(s4) # fffe21c3 <_stack_start+0x7ffe0603>
 db4:	1c34                	addi	a3,sp,568
 db6:	009f 2c07 0005      	0x52c07009f
 dbc:	4480                	lw	s0,8(s1)
 dbe:	0005                	c.nop	1
 dc0:	0980                	addi	s0,sp,208
 dc2:	007a                	c.slli	zero,0x1e
 dc4:	1c5a01a3          	sb	t0,451(s4)
 dc8:	1c34                	addi	a3,sp,568
 dca:	079f 0544 8000      	0x80000544079f
 dd0:	05ac                	addi	a1,sp,712
 dd2:	8000                	0x8000
 dd4:	7a09                	lui	s4,0xfffe2
 dd6:	a300                	fsd	fs0,0(a4)
 dd8:	5a01                	li	s4,-32
 dda:	401c                	lw	a5,0(s0)
 ddc:	9f1c                	0x9f1c
 dde:	0005ac07          	flw	fs8,0(a1)
 de2:	c080                	sw	s0,0(s1)
 de4:	0005                	c.nop	1
 de6:	0980                	addi	s0,sp,208
 de8:	007a                	c.slli	zero,0x1e
 dea:	1c5a01a3          	sb	t0,451(s4) # fffe21c3 <_stack_start+0x7ffe0603>
 dee:	1c44                	addi	s1,sp,564
 df0:	079f 05c0 8000      	0x800005c0079f
 df6:	05f4                	addi	a3,sp,716
 df8:	8000                	0x8000
 dfa:	7a09                	lui	s4,0xfffe2
 dfc:	a300                	fsd	fs0,0(a4)
 dfe:	5a01                	li	s4,-32
 e00:	341c                	fld	fa5,40(s0)
 e02:	9f1c                	0x9f1c
 e04:	0005f407          	0x5f407
 e08:	2880                	fld	fs0,16(s1)
 e0a:	0006                	c.slli	zero,0x1
 e0c:	0980                	addi	s0,sp,208
 e0e:	007a                	c.slli	zero,0x1e
 e10:	1c5a01a3          	sb	t0,451(s4) # fffe21c3 <_stack_start+0x7ffe0603>
 e14:	1c44                	addi	s1,sp,564
 e16:	009f 2c07 0005      	0x52c07009f
 e1c:	3880                	fld	fs0,48(s1)
 e1e:	0005                	c.nop	1
 e20:	1680                	addi	s0,sp,864
 e22:	0081                	addi	ra,ra,0
 e24:	ff08                	fsw	fa0,56(a4)
 e26:	031a                	slli	t1,t1,0x6
 e28:	119c                	addi	a5,sp,224
 e2a:	8000                	0x8000
 e2c:	9322                	add	t1,t1,s0
 e2e:	5601                	li	a2,-32
 e30:	936c0193          	addi	gp,s8,-1738
 e34:	6001                	0x6001
 e36:	38070193          	addi	gp,a4,896
 e3a:	0005                	c.nop	1
 e3c:	3c80                	fld	fs0,56(s1)
 e3e:	0005                	c.nop	1
 e40:	1680                	addi	s0,sp,864
 e42:	0081                	addi	ra,ra,0
 e44:	ff08                	fsw	fa0,56(a4)
 e46:	031a                	slli	t1,t1,0x6
 e48:	119c                	addi	a5,sp,224
 e4a:	8000                	0x8000
 e4c:	9322                	add	t1,t1,s0
 e4e:	6801                	0x6801
 e50:	936c0193          	addi	gp,s8,-1738
 e54:	6001                	0x6001
 e56:	3c070193          	addi	gp,a4,960
 e5a:	0005                	c.nop	1
 e5c:	4080                	lw	s0,0(s1)
 e5e:	0005                	c.nop	1
 e60:	1680                	addi	s0,sp,864
 e62:	0081                	addi	ra,ra,0
 e64:	ff08                	fsw	fa0,56(a4)
 e66:	031a                	slli	t1,t1,0x6
 e68:	119c                	addi	a5,sp,224
 e6a:	8000                	0x8000
 e6c:	9322                	add	t1,t1,s0
 e6e:	6801                	0x6801
 e70:	935d0193          	addi	gp,s10,-1739 # fffdf935 <_stack_start+0x7ffddd75>
 e74:	6001                	0x6001
 e76:	40070193          	addi	gp,a4,1024
 e7a:	0005                	c.nop	1
 e7c:	4480                	lw	s0,8(s1)
 e7e:	0005                	c.nop	1
 e80:	1680                	addi	s0,sp,864
 e82:	0081                	addi	ra,ra,0
 e84:	ff08                	fsw	fa0,56(a4)
 e86:	031a                	slli	t1,t1,0x6
 e88:	119c                	addi	a5,sp,224
 e8a:	8000                	0x8000
 e8c:	9322                	add	t1,t1,s0
 e8e:	6801                	0x6801
 e90:	935d0193          	addi	gp,s10,-1739
 e94:	5e01                	li	t3,-32
 e96:	44070193          	addi	gp,a4,1088
 e9a:	0005                	c.nop	1
 e9c:	4880                	lw	s0,16(s1)
 e9e:	0005                	c.nop	1
 ea0:	0c80                	addi	s0,sp,592
 ea2:	935f 6801 0193      	0x1936801935f
 ea8:	935d                	srli	a4,a4,0x37
 eaa:	5e01                	li	t3,-32
 eac:	48070193          	addi	gp,a4,1152
 eb0:	0005                	c.nop	1
 eb2:	4c80                	lw	s0,24(s1)
 eb4:	0005                	c.nop	1
 eb6:	0b80                	addi	s0,sp,464
 eb8:	93680193          	addi	gp,a6,-1738
 ebc:	5d01                	li	s10,-32
 ebe:	935e0193          	addi	gp,t3,-1739
 ec2:	0701                	addi	a4,a4,0
 ec4:	054c                	addi	a1,sp,644
 ec6:	8000                	0x8000
 ec8:	0550                	addi	a2,sp,644
 eca:	8000                	0x8000
 ecc:	9308                	0x9308
 ece:	5d02                	lw	s10,32(sp)
 ed0:	935e0193          	addi	gp,t3,-1739
 ed4:	0701                	addi	a4,a4,0
 ed6:	0550                	addi	a2,sp,644
 ed8:	8000                	0x8000
 eda:	0554                	addi	a3,sp,644
 edc:	8000                	0x8000
 ede:	9305                	srli	a4,a4,0x21
 ee0:	01935e03          	lhu	t3,25(t1)
 ee4:	0005c007          	flq	ft0,0(a1)
 ee8:	f480                	fsw	fs0,40(s1)
 eea:	0005                	c.nop	1
 eec:	1680                	addi	s0,sp,864
 eee:	0081                	addi	ra,ra,0
 ef0:	ff08                	fsw	fa0,56(a4)
 ef2:	031a                	slli	t1,t1,0x6
 ef4:	119c                	addi	a5,sp,224
 ef6:	8000                	0x8000
 ef8:	9322                	add	t1,t1,s0
 efa:	5601                	li	a2,-32
 efc:	936c0193          	addi	gp,s8,-1738
 f00:	6001                	0x6001
 f02:	          	li	gp,0

Disassembly of section .debug_aranges:

00000000 <.debug_aranges>:
   0:	0024                	addi	s1,sp,8
   2:	0000                	unimp
   4:	0002                	c.slli64	zero
   6:	0000                	unimp
   8:	0000                	unimp
   a:	0004                	0x4
   c:	0000                	unimp
   e:	0000                	unimp
  10:	0114                	addi	a3,sp,128
  12:	8000                	0x8000
  14:	0160                	addi	s0,sp,140
  16:	0000                	unimp
  18:	1124                	addi	s1,sp,168
  1a:	8000                	0x8000
  1c:	006c                	addi	a1,sp,12
	...
  26:	0000                	unimp
  28:	001c                	0x1c
  2a:	0000                	unimp
  2c:	0002                	c.slli64	zero
  2e:	04e4                	addi	s1,sp,588
  30:	0000                	unimp
  32:	0004                	0x4
  34:	0000                	unimp
  36:	0000                	unimp
  38:	0000                	unimp
  3a:	8000                	0x8000
  3c:	0114                	addi	a3,sp,128
	...
  46:	0000                	unimp
  48:	001c                	0x1c
  4a:	0000                	unimp
  4c:	0002                	c.slli64	zero
  4e:	0509                	addi	a0,a0,2
  50:	0000                	unimp
  52:	0004                	0x4
  54:	0000                	unimp
  56:	0000                	unimp
  58:	0274                	addi	a3,sp,268
  5a:	8000                	0x8000
  5c:	01f4                	addi	a3,sp,204
	...
  66:	0000                	unimp
  68:	001c                	0x1c
  6a:	0000                	unimp
  6c:	0002                	c.slli64	zero
  6e:	00000847          	fmsub.s	fa6,ft0,ft0,ft0,rne
  72:	0004                	0x4
  74:	0000                	unimp
  76:	0000                	unimp
  78:	0468                	addi	a0,sp,524
  7a:	8000                	0x8000
  7c:	0b94                	addi	a3,sp,464
	...

Disassembly of section .debug_rnglists:

00000000 <.debug_rnglists>:
   0:	004a                	c.slli	zero,0x12
   2:	0000                	unimp
   4:	0005                	c.nop	1
   6:	0004                	0x4
   8:	0000                	unimp
   a:	0000                	unimp
   c:	a806                	fsd	ft1,16(sp)
   e:	0001                	nop
  10:	a880                	fsd	fs0,16(s1)
  12:	0001                	nop
  14:	0680                	addi	s0,sp,832
  16:	01b0                	addi	a2,sp,200
  18:	8000                	0x8000
  1a:	01b8                	addi	a4,sp,200
  1c:	8000                	0x8000
  1e:	cc06                	sw	ra,24(sp)
  20:	0001                	nop
  22:	0c80                	addi	s0,sp,592
  24:	0002                	c.slli64	zero
  26:	0080                	addi	s0,sp,64
  28:	6006                	flw	ft0,64(sp)
  2a:	0011                	c.nop	4
  2c:	6080                	flw	fs0,0(s1)
  2e:	0011                	c.nop	4
  30:	0680                	addi	s0,sp,832
  32:	1164                	addi	s1,sp,172
  34:	8000                	0x8000
  36:	1170                	addi	a2,sp,172
  38:	8000                	0x8000
  3a:	0600                	addi	s0,sp,768
  3c:	0114                	addi	a3,sp,128
  3e:	8000                	0x8000
  40:	0274                	addi	a3,sp,268
  42:	8000                	0x8000
  44:	2406                	fld	fs0,64(sp)
  46:	0011                	c.nop	4
  48:	9080                	0x9080
  4a:	0011                	c.nop	4
  4c:	0080                	addi	s0,sp,64
  4e:	005c                	addi	a5,sp,4
  50:	0000                	unimp
  52:	0005                	c.nop	1
  54:	0004                	0x4
  56:	0000                	unimp
  58:	0000                	unimp
  5a:	1406                	slli	s0,s0,0x21
  5c:	1c800003          	lb	zero,456(zero) # 1c8 <_heap_size+0x1c8>
  60:	06800003          	lb	zero,104(zero) # 68 <_heap_size+0x68>
  64:	0320                	addi	s0,sp,392
  66:	8000                	0x8000
  68:	0328                	addi	a0,sp,392
  6a:	8000                	0x8000
  6c:	2c06                	fld	fs8,64(sp)
  6e:	34800003          	lb	zero,840(zero) # 348 <_heap_size+0x348>
  72:	06800003          	lb	zero,104(zero) # 68 <_heap_size+0x68>
  76:	0338                	addi	a4,sp,392
  78:	8000                	0x8000
  7a:	0340                	addi	s0,sp,388
  7c:	8000                	0x8000
  7e:	0600                	addi	s0,sp,768
  80:	03a8                	addi	a0,sp,456
  82:	8000                	0x8000
  84:	03c0                	addi	s0,sp,452
  86:	8000                	0x8000
  88:	e006                	fsw	ft1,0(sp)
  8a:	f4800003          	lb	zero,-184(zero) # ffffff48 <_stack_start+0x7fffe388>
  8e:	00800003          	lb	zero,8(zero) # 8 <_heap_size+0x8>
  92:	4006                	0x4006
  94:	0004                	0x4
  96:	5080                	lw	s0,32(s1)
  98:	0004                	0x4
  9a:	0680                	addi	s0,sp,832
  9c:	0450                	addi	a2,sp,516
  9e:	8000                	0x8000
  a0:	0454                	addi	a3,sp,516
  a2:	8000                	0x8000
  a4:	6006                	flw	ft0,64(sp)
  a6:	0004                	0x4
  a8:	6880                	flw	fs0,16(s1)
  aa:	0004                	0x4
  ac:	0080                	addi	s0,sp,64

Disassembly of section .debug_line:

00000000 <.debug_line>:
       0:	000004d7          	0x4d7
       4:	0005                	c.nop	1
       6:	0004                	0x4
       8:	0061                	c.nop	24
       a:	0000                	unimp
       c:	0101                	addi	sp,sp,0
       e:	fb01                	bnez	a4,ffffff1e <_stack_start+0x7fffe35e>
      10:	0d0e                	slli	s10,s10,0x3
      12:	0100                	addi	s0,sp,128
      14:	0101                	addi	sp,sp,0
      16:	0001                	nop
      18:	0000                	unimp
      1a:	0001                	nop
      1c:	0100                	addi	s0,sp,128
      1e:	0101                	addi	sp,sp,0
      20:	061f 0011 0000      	0x11061f
      26:	00000043          	fmadd.s	ft0,ft0,ft0,ft0,rne
      2a:	0048                	addi	a0,sp,4
      2c:	0000                	unimp
      2e:	004c                	addi	a1,sp,4
      30:	0000                	unimp
      32:	007f                	0x7f
      34:	0000                	unimp
      36:	00ae                	slli	ra,ra,0xb
      38:	0000                	unimp
      3a:	0102                	c.slli64	sp
      3c:	021f 090f 0000      	0x90f021f
      42:	0000                	unimp
      44:	d900                	sw	s0,48(a0)
      46:	0000                	unimp
      48:	0100                	addi	s0,sp,128
      4a:	0004                	0x4
      4c:	0000                	unimp
      4e:	e002                	fsw	ft0,0(sp)
      50:	0000                	unimp
      52:	0300                	addi	s0,sp,384
      54:	00f1                	addi	ra,ra,28
      56:	0000                	unimp
      58:	e904                	fsw	fs1,16(a0)
      5a:	0000                	unimp
      5c:	0400                	addi	s0,sp,512
      5e:	000000fb          	0xfb
      62:	0301                	addi	t1,t1,0
      64:	0001                	nop
      66:	0100                	addi	s0,sp,128
      68:	010a                	slli	sp,sp,0x2
      6a:	0000                	unimp
      6c:	0505                	addi	a0,a0,1
      6e:	000d                	c.nop	3
      70:	0205                	addi	tp,tp,1
      72:	0114                	addi	a3,sp,128
      74:	8000                	0x8000
      76:	05012203          	lw	tp,80(sp)
      7a:	0302                	c.slli64	t1
      7c:	0901                	addi	s2,s2,0
      7e:	0000                	unimp
      80:	0501                	addi	a0,a0,0
      82:	0615                	addi	a2,a2,5
      84:	00090003          	lb	zero,0(s2)
      88:	0100                	addi	s0,sp,128
      8a:	0205                	addi	tp,tp,1
      8c:	0306                	slli	t1,t1,0x1
      8e:	0901                	addi	s2,s2,0
      90:	000c                	0xc
      92:	0501                	addi	a0,a0,0
      94:	0614                	addi	a3,sp,768
      96:	00090003          	lb	zero,0(s2)
      9a:	0100                	addi	s0,sp,128
      9c:	0105                	addi	sp,sp,1
      9e:	08090103          	lb	sp,128(s2)
      a2:	0100                	addi	s0,sp,128
      a4:	1105                	addi	sp,sp,-31
      a6:	0306                	slli	t1,t1,0x1
      a8:	0971                	addi	s2,s2,28
      aa:	0004                	0x4
      ac:	0501                	addi	a0,a0,0
      ae:	0302                	c.slli64	t1
      b0:	0901                	addi	s2,s2,0
      b2:	0000                	unimp
      b4:	0501                	addi	a0,a0,0
      b6:	060d                	addi	a2,a2,3
      b8:	00090003          	lb	zero,0(s2)
      bc:	0100                	addi	s0,sp,128
      be:	1605                	addi	a2,a2,-31
      c0:	08090003          	lb	zero,128(s2)
      c4:	0100                	addi	s0,sp,128
      c6:	0105                	addi	sp,sp,1
      c8:	04090103          	lb	sp,64(s2)
      cc:	0100                	addi	s0,sp,128
      ce:	0d05                	addi	s10,s10,1
      d0:	0306                	slli	t1,t1,0x1
      d2:	0905                	addi	s2,s2,1
      d4:	0008                	0x8
      d6:	0501                	addi	a0,a0,0
      d8:	0324                	addi	s1,sp,392
      da:	0901                	addi	s2,s2,0
      dc:	0010                	0x10
      de:	0501                	addi	a0,a0,0
      e0:	0608                	addi	a0,sp,768
      e2:	00090003          	lb	zero,0(s2)
      e6:	0100                	addi	s0,sp,128
      e8:	2405                	jal	308 <_heap_size+0x308>
      ea:	04090003          	lb	zero,64(s2)
      ee:	0100                	addi	s0,sp,128
      f0:	0205                	addi	tp,tp,1
      f2:	0306                	slli	t1,t1,0x1
      f4:	0901                	addi	s2,s2,0
      f6:	0004                	0x4
      f8:	0501                	addi	a0,a0,0
      fa:	060c                	addi	a1,sp,768
      fc:	00090003          	lb	zero,0(s2)
     100:	0100                	addi	s0,sp,128
     102:	0105                	addi	sp,sp,1
     104:	04090103          	lb	sp,64(s2)
     108:	0100                	addi	s0,sp,128
     10a:	0c05                	addi	s8,s8,1
     10c:	04097f03          	0x4097f03
     110:	0100                	addi	s0,sp,128
     112:	0105                	addi	sp,sp,1
     114:	04090103          	lb	sp,64(s2)
     118:	0100                	addi	s0,sp,128
     11a:	0204                	addi	s1,sp,256
     11c:	1605                	addi	a2,a2,-31
     11e:	0306                	slli	t1,t1,0x1
     120:	0978                	addi	a4,sp,156
     122:	000c                	0xc
     124:	0501                	addi	a0,a0,0
     126:	0302                	c.slli64	t1
     128:	0901                	addi	s2,s2,0
     12a:	0000                	unimp
     12c:	0501                	addi	a0,a0,0
     12e:	0616                	slli	a2,a2,0x5
     130:	00097f03          	0x97f03
     134:	0100                	addi	s0,sp,128
     136:	0c090003          	lb	zero,192(s2)
     13a:	0100                	addi	s0,sp,128
     13c:	0805                	addi	a6,a6,1
     13e:	0306                	slli	t1,t1,0x1
     140:	0901                	addi	s2,s2,0
     142:	0004                	0x4
     144:	0501                	addi	a0,a0,0
     146:	09010303          	lb	t1,144(sp)
     14a:	0008                	0x8
     14c:	0501                	addi	a0,a0,0
     14e:	0618                	addi	a4,sp,768
     150:	00090003          	lb	zero,0(s2)
     154:	0100                	addi	s0,sp,128
     156:	0305                	addi	t1,t1,1
     158:	04090003          	lb	zero,64(s2)
     15c:	0100                	addi	s0,sp,128
     15e:	0805                	addi	a6,a6,1
     160:	0306                	slli	t1,t1,0x1
     162:	097f                	0x97f
     164:	0004                	0x4
     166:	0501                	addi	a0,a0,0
     168:	0601                	addi	a2,a2,0
     16a:	08090303          	lb	t1,128(s2)
     16e:	0100                	addi	s0,sp,128
     170:	0306                	slli	t1,t1,0x1
     172:	01f6                	slli	gp,gp,0x1d
     174:	1009                	c.nop	-30
     176:	0100                	addi	s0,sp,128
     178:	0505                	addi	a0,a0,1
     17a:	00090203          	lb	tp,0(s2)
     17e:	0100                	addi	s0,sp,128
     180:	0a05                	addi	s4,s4,1
     182:	00090003          	lb	zero,0(s2)
     186:	0100                	addi	s0,sp,128
     188:	1c05                	addi	s8,s8,-31
     18a:	00090003          	lb	zero,0(s2)
     18e:	0100                	addi	s0,sp,128
     190:	0105                	addi	sp,sp,1
     192:	0306                	slli	t1,t1,0x1
     194:	097e                	slli	s2,s2,0x1f
     196:	0000                	unimp
     198:	0501                	addi	a0,a0,0
     19a:	09020313          	addi	t1,tp,144 # 90 <_heap_size+0x90>
     19e:	0008                	0x8
     1a0:	0501                	addi	a0,a0,0
     1a2:	0309                	addi	t1,t1,2
     1a4:	0901                	addi	s2,s2,0
     1a6:	0004                	0x4
     1a8:	0501                	addi	a0,a0,0
     1aa:	0301                	addi	t1,t1,0
     1ac:	097d                	addi	s2,s2,31
     1ae:	0004                	0x4
     1b0:	0501                	addi	a0,a0,0
     1b2:	0321                	addi	t1,t1,8
     1b4:	0908                	addi	a0,sp,144
     1b6:	0014                	0x14
     1b8:	0501                	addi	a0,a0,0
     1ba:	0309                	addi	t1,t1,2
     1bc:	0004097b          	0x4097b
     1c0:	0501                	addi	a0,a0,0
     1c2:	030c                	addi	a1,sp,384
     1c4:	0901                	addi	s2,s2,0
     1c6:	0004                	0x4
     1c8:	0501                	addi	a0,a0,0
     1ca:	0321                	addi	t1,t1,8
     1cc:	0904                	addi	s1,sp,144
     1ce:	0004                	0x4
     1d0:	0501                	addi	a0,a0,0
     1d2:	031c                	addi	a5,sp,384
     1d4:	097a                	slli	s2,s2,0x1e
     1d6:	0008                	0x8
     1d8:	0501                	addi	a0,a0,0
     1da:	0609                	addi	a2,a2,2
     1dc:	04090103          	lb	sp,64(s2)
     1e0:	0100                	addi	s0,sp,128
     1e2:	00090103          	lb	sp,0(s2)
     1e6:	0100                	addi	s0,sp,128
     1e8:	0d05                	addi	s10,s10,1
     1ea:	00090203          	lb	tp,0(s2)
     1ee:	0100                	addi	s0,sp,128
     1f0:	00090203          	lb	tp,0(s2)
     1f4:	0100                	addi	s0,sp,128
     1f6:	2305                	jal	716 <_heap_size+0x716>
     1f8:	0306                	slli	t1,t1,0x1
     1fa:	097a                	slli	s2,s2,0x1e
     1fc:	0000                	unimp
     1fe:	0501                	addi	a0,a0,0
     200:	030c                	addi	a1,sp,384
     202:	0902                	c.slli64	s2
     204:	0004                	0x4
     206:	0501                	addi	a0,a0,0
     208:	0321                	addi	t1,t1,8
     20a:	0902                	c.slli64	s2
     20c:	0004                	0x4
     20e:	0501                	addi	a0,a0,0
     210:	7c030623          	sb	zero,1996(t1)
     214:	0409                	addi	s0,s0,2
     216:	0100                	addi	s0,sp,128
     218:	1c05                	addi	s8,s8,-31
     21a:	00090003          	lb	zero,0(s2)
     21e:	0100                	addi	s0,sp,128
     220:	2305                	jal	740 <_heap_size+0x740>
     222:	0306                	slli	t1,t1,0x1
     224:	0900                	addi	s0,sp,144
     226:	0000                	unimp
     228:	0501                	addi	a0,a0,0
     22a:	0609                	addi	a2,a2,2
     22c:	04090103          	lb	sp,64(s2)
     230:	0100                	addi	s0,sp,128
     232:	08090103          	lb	sp,128(s2)
     236:	0100                	addi	s0,sp,128
     238:	0d05                	addi	s10,s10,1
     23a:	00090203          	lb	tp,0(s2)
     23e:	0100                	addi	s0,sp,128
     240:	00090203          	lb	tp,0(s2)
     244:	0100                	addi	s0,sp,128
     246:	2305                	jal	766 <_heap_size+0x766>
     248:	0306                	slli	t1,t1,0x1
     24a:	097a                	slli	s2,s2,0x1e
     24c:	0000                	unimp
     24e:	0501                	addi	a0,a0,0
     250:	030c                	addi	a1,sp,384
     252:	0902                	c.slli64	s2
     254:	0004                	0x4
     256:	0501                	addi	a0,a0,0
     258:	0321                	addi	t1,t1,8
     25a:	0904                	addi	s1,sp,144
     25c:	0004                	0x4
     25e:	0501                	addi	a0,a0,0
     260:	7a030623          	sb	zero,1964(t1)
     264:	0409                	addi	s0,s0,2
     266:	0100                	addi	s0,sp,128
     268:	1c05                	addi	s8,s8,-31
     26a:	00090003          	lb	zero,0(s2)
     26e:	0100                	addi	s0,sp,128
     270:	0105                	addi	sp,sp,1
     272:	0306                	slli	t1,t1,0x1
     274:	090a                	slli	s2,s2,0x2
     276:	0004                	0x4
     278:	0501                	addi	a0,a0,0
     27a:	ba030613          	addi	a2,t1,-1120
     27e:	097e                	slli	s2,s2,0x1f
     280:	0020                	addi	s0,sp,8
     282:	0501                	addi	a0,a0,0
     284:	0305                	addi	t1,t1,1
     286:	0901                	addi	s2,s2,0
     288:	0000                	unimp
     28a:	0301                	addi	t1,t1,0
     28c:	0902                	c.slli64	s2
     28e:	0000                	unimp
     290:	0501                	addi	a0,a0,0
     292:	09000313          	li	t1,144
     296:	0000                	unimp
     298:	0301                	addi	t1,t1,0
     29a:	0900                	addi	s0,sp,144
     29c:	0000                	unimp
     29e:	0301                	addi	t1,t1,0
     2a0:	0900                	addi	s0,sp,144
     2a2:	0004                	0x4
     2a4:	0501                	addi	a0,a0,0
     2a6:	0305                	addi	t1,t1,1
     2a8:	0901                	addi	s2,s2,0
     2aa:	0000                	unimp
     2ac:	0501                	addi	a0,a0,0
     2ae:	09000313          	li	t1,144
     2b2:	0000                	unimp
     2b4:	0301                	addi	t1,t1,0
     2b6:	0900                	addi	s0,sp,144
     2b8:	0000                	unimp
     2ba:	0301                	addi	t1,t1,0
     2bc:	0900                	addi	s0,sp,144
     2be:	0004                	0x4
     2c0:	0501                	addi	a0,a0,0
     2c2:	0305                	addi	t1,t1,1
     2c4:	0901                	addi	s2,s2,0
     2c6:	0000                	unimp
     2c8:	0501                	addi	a0,a0,0
     2ca:	09000313          	li	t1,144
     2ce:	0000                	unimp
     2d0:	0301                	addi	t1,t1,0
     2d2:	0900                	addi	s0,sp,144
     2d4:	0000                	unimp
     2d6:	0301                	addi	t1,t1,0
     2d8:	0900                	addi	s0,sp,144
     2da:	0004                	0x4
     2dc:	0501                	addi	a0,a0,0
     2de:	0305                	addi	t1,t1,1
     2e0:	0904                	addi	s1,sp,144
     2e2:	0000                	unimp
     2e4:	0501                	addi	a0,a0,0
     2e6:	0609                	addi	a2,a2,2
     2e8:	00090003          	lb	zero,0(s2)
     2ec:	0100                	addi	s0,sp,128
     2ee:	0805                	addi	a6,a6,1
     2f0:	04090003          	lb	zero,64(s2)
     2f4:	0100                	addi	s0,sp,128
     2f6:	0905                	addi	s2,s2,1
     2f8:	0306                	slli	t1,t1,0x1
     2fa:	0901                	addi	s2,s2,0
     2fc:	0008                	0x8
     2fe:	0501                	addi	a0,a0,0
     300:	0619                	addi	a2,a2,6
     302:	00090003          	lb	zero,0(s2)
     306:	0100                	addi	s0,sp,128
     308:	0905                	addi	s2,s2,1
     30a:	0306                	slli	t1,t1,0x1
     30c:	0901                	addi	s2,s2,0
     30e:	0004                	0x4
     310:	0501                	addi	a0,a0,0
     312:	0619                	addi	a2,a2,6
     314:	00090003          	lb	zero,0(s2)
     318:	0100                	addi	s0,sp,128
     31a:	0905                	addi	s2,s2,1
     31c:	0306                	slli	t1,t1,0x1
     31e:	0901                	addi	s2,s2,0
     320:	0008                	0x8
     322:	0501                	addi	a0,a0,0
     324:	0619                	addi	a2,a2,6
     326:	00090003          	lb	zero,0(s2)
     32a:	0100                	addi	s0,sp,128
     32c:	0505                	addi	a0,a0,1
     32e:	0306                	slli	t1,t1,0x1
     330:	00080907          	0x80907
     334:	0501                	addi	a0,a0,0
     336:	0309                	addi	t1,t1,2
     338:	0901                	addi	s2,s2,0
     33a:	0000                	unimp
     33c:	0501                	addi	a0,a0,0
     33e:	061d                	addi	a2,a2,7
     340:	00090003          	lb	zero,0(s2)
     344:	0100                	addi	s0,sp,128
     346:	0905                	addi	s2,s2,1
     348:	0306                	slli	t1,t1,0x1
     34a:	0901                	addi	s2,s2,0
     34c:	0008                	0x8
     34e:	0501                	addi	a0,a0,0
     350:	0005                	c.nop	1
     352:	0402                	c.slli64	s0
     354:	0301                	addi	t1,t1,0
     356:	00040907          	0x40907
     35a:	0501                	addi	a0,a0,0
     35c:	000a                	c.slli	zero,0x2
     35e:	0402                	c.slli64	s0
     360:	0301                	addi	t1,t1,0
     362:	0900                	addi	s0,sp,144
     364:	0000                	unimp
     366:	0501                	addi	a0,a0,0
     368:	0005                	c.nop	1
     36a:	0402                	c.slli64	s0
     36c:	0301                	addi	t1,t1,0
     36e:	0900                	addi	s0,sp,144
     370:	0000                	unimp
     372:	0501                	addi	a0,a0,0
     374:	000a                	c.slli	zero,0x2
     376:	0402                	c.slli64	s0
     378:	0301                	addi	t1,t1,0
     37a:	0900                	addi	s0,sp,144
     37c:	0000                	unimp
     37e:	0501                	addi	a0,a0,0
     380:	0310                	addi	a2,sp,384
     382:	0905                	addi	s2,s2,1
     384:	0004                	0x4
     386:	0501                	addi	a0,a0,0
     388:	0302                	c.slli64	t1
     38a:	0901                	addi	s2,s2,0
     38c:	0000                	unimp
     38e:	0501                	addi	a0,a0,0
     390:	0610                	addi	a2,sp,768
     392:	00090003          	lb	zero,0(s2)
     396:	0100                	addi	s0,sp,128
     398:	0105                	addi	sp,sp,1
     39a:	08090103          	lb	sp,128(s2)
     39e:	0100                	addi	s0,sp,128
     3a0:	0409                	addi	s0,s0,2
     3a2:	0000                	unimp
     3a4:	0101                	addi	sp,sp,0
     3a6:	0204                	addi	s1,sp,256
     3a8:	0c05                	addi	s8,s8,1
     3aa:	0500                	addi	s0,sp,640
     3ac:	2402                	fld	fs0,0(sp)
     3ae:	0011                	c.nop	4
     3b0:	0380                	addi	s0,sp,448
     3b2:	011e                	slli	sp,sp,0x7
     3b4:	0505                	addi	a0,a0,1
     3b6:	00090103          	lb	sp,0(s2)
     3ba:	0100                	addi	s0,sp,128
     3bc:	0c05                	addi	s8,s8,1
     3be:	0306                	slli	t1,t1,0x1
     3c0:	097f                	0x97f
     3c2:	0000                	unimp
     3c4:	0501                	addi	a0,a0,0
     3c6:	0320                	addi	s0,sp,392
     3c8:	0901                	addi	s2,s2,0
     3ca:	0008                	0x8
     3cc:	0501                	addi	a0,a0,0
     3ce:	030c                	addi	a1,sp,384
     3d0:	097f                	0x97f
     3d2:	000c                	0xc
     3d4:	0501                	addi	a0,a0,0
     3d6:	0320                	addi	s0,sp,392
     3d8:	0901                	addi	s2,s2,0
     3da:	0004                	0x4
     3dc:	0501                	addi	a0,a0,0
     3de:	0605                	addi	a2,a2,1
     3e0:	04090103          	lb	sp,64(s2)
     3e4:	0100                	addi	s0,sp,128
     3e6:	1905                	addi	s2,s2,-31
     3e8:	0306                	slli	t1,t1,0x1
     3ea:	0900                	addi	s0,sp,144
     3ec:	0000                	unimp
     3ee:	0501                	addi	a0,a0,0
     3f0:	0602                	c.slli64	a2
     3f2:	04090303          	lb	t1,64(s2)
     3f6:	0100                	addi	s0,sp,128
     3f8:	00090103          	lb	sp,0(s2)
     3fc:	0100                	addi	s0,sp,128
     3fe:	0505                	addi	a0,a0,1
     400:	00090303          	lb	t1,0(s2)
     404:	0100                	addi	s0,sp,128
     406:	0205                	addi	tp,tp,1
     408:	00090103          	lb	sp,0(s2)
     40c:	0100                	addi	s0,sp,128
     40e:	00090203          	lb	tp,0(s2)
     412:	0100                	addi	s0,sp,128
     414:	00090103          	lb	sp,0(s2)
     418:	0100                	addi	s0,sp,128
     41a:	00090103          	lb	sp,0(s2)
     41e:	0100                	addi	s0,sp,128
     420:	00090103          	lb	sp,0(s2)
     424:	0100                	addi	s0,sp,128
     426:	00090103          	lb	sp,0(s2)
     42a:	0100                	addi	s0,sp,128
     42c:	00090103          	lb	sp,0(s2)
     430:	0100                	addi	s0,sp,128
     432:	08090d03          	lb	s10,128(s2)
     436:	0100                	addi	s0,sp,128
     438:	1105                	addi	sp,sp,-31
     43a:	0306                	slli	t1,t1,0x1
     43c:	0900                	addi	s0,sp,144
     43e:	0000                	unimp
     440:	0501                	addi	a0,a0,0
     442:	0318                	addi	a4,sp,384
     444:	0901                	addi	s2,s2,0
     446:	0008                	0x8
     448:	0501                	addi	a0,a0,0
     44a:	0311                	addi	t1,t1,4
     44c:	097f                	0x97f
     44e:	0004                	0x4
     450:	0501                	addi	a0,a0,0
     452:	0602                	c.slli64	a2
     454:	04090103          	lb	sp,64(s2)
     458:	0100                	addi	s0,sp,128
     45a:	1805                	addi	a6,a6,-31
     45c:	0306                	slli	t1,t1,0x1
     45e:	0900                	addi	s0,sp,144
     460:	0000                	unimp
     462:	0501                	addi	a0,a0,0
     464:	0602                	c.slli64	a2
     466:	04090d03          	lb	s10,64(s2)
     46a:	0100                	addi	s0,sp,128
     46c:	0705                	addi	a4,a4,1
     46e:	00090003          	lb	zero,0(s2)
     472:	0100                	addi	s0,sp,128
     474:	1905                	addi	s2,s2,-31
     476:	00090003          	lb	zero,0(s2)
     47a:	0100                	addi	s0,sp,128
     47c:	1805                	addi	a6,a6,-31
     47e:	0306                	slli	t1,t1,0x1
     480:	00000973          	0x973
     484:	0501                	addi	a0,a0,0
     486:	0009                	c.nop	2
     488:	0402                	c.slli64	s0
     48a:	11030603          	lb	a2,272(t1)
     48e:	0409                	addi	s0,s0,2
     490:	0100                	addi	s0,sp,128
     492:	1905                	addi	s2,s2,-31
     494:	0200                	addi	s0,sp,256
     496:	0304                	addi	s1,sp,384
     498:	0306                	slli	t1,t1,0x1
     49a:	097c                	addi	a5,sp,156
     49c:	0000                	unimp
     49e:	0501                	addi	a0,a0,0
     4a0:	0009                	c.nop	2
     4a2:	0402                	c.slli64	s0
     4a4:	09040303          	lb	t1,144(s0)
     4a8:	0004                	0x4
     4aa:	0501                	addi	a0,a0,0
     4ac:	04020023          	sb	zero,64(tp) # 40 <_heap_size+0x40>
     4b0:	7c030603          	lb	a2,1984(t1)
     4b4:	0409                	addi	s0,s0,2
     4b6:	0100                	addi	s0,sp,128
     4b8:	1905                	addi	s2,s2,-31
     4ba:	0200                	addi	s0,sp,256
     4bc:	0304                	addi	s1,sp,384
     4be:	00090003          	lb	zero,0(s2)
     4c2:	0100                	addi	s0,sp,128
     4c4:	0205                	addi	tp,tp,1
     4c6:	04090703          	lb	a4,64(s2)
     4ca:	0100                	addi	s0,sp,128
     4cc:	0105                	addi	sp,sp,1
     4ce:	0306                	slli	t1,t1,0x1
     4d0:	0901                	addi	s2,s2,0
     4d2:	000c                	0xc
     4d4:	0901                	addi	s2,s2,0
     4d6:	0014                	0x14
     4d8:	0100                	addi	s0,sp,128
     4da:	c401                	beqz	s0,4e2 <_heap_size+0x4e2>
     4dc:	0001                	nop
     4de:	0500                	addi	s0,sp,640
     4e0:	0400                	addi	s0,sp,512
     4e2:	2e00                	fld	fs0,24(a2)
     4e4:	0000                	unimp
     4e6:	0100                	addi	s0,sp,128
     4e8:	0101                	addi	sp,sp,0
     4ea:	000d0efb          	0xd0efb
     4ee:	0101                	addi	sp,sp,0
     4f0:	0101                	addi	sp,sp,0
     4f2:	0000                	unimp
     4f4:	0100                	addi	s0,sp,128
     4f6:	0000                	unimp
     4f8:	0101                	addi	sp,sp,0
     4fa:	1f01                	addi	t5,t5,-32
     4fc:	4802                	lw	a6,0(sp)
     4fe:	0000                	unimp
     500:	4800                	lw	s0,16(s0)
     502:	0000                	unimp
     504:	0200                	addi	s0,sp,256
     506:	1f01                	addi	t5,t5,-32
     508:	0f02                	c.slli64	t5
     50a:	1102                	slli	sp,sp,0x20
     50c:	0001                	nop
     50e:	0000                	unimp
     510:	0111                	addi	sp,sp,4
     512:	0000                	unimp
     514:	0001                	nop
     516:	0205                	addi	tp,tp,1
     518:	0000                	unimp
     51a:	8000                	0x8000
     51c:	09010317          	auipc	t1,0x9010
     520:	0004                	0x4
     522:	0301                	addi	t1,t1,0
     524:	0901                	addi	s2,s2,0
     526:	0004                	0x4
     528:	0301                	addi	t1,t1,0
     52a:	0901                	addi	s2,s2,0
     52c:	0004                	0x4
     52e:	0301                	addi	t1,t1,0
     530:	0901                	addi	s2,s2,0
     532:	0004                	0x4
     534:	0301                	addi	t1,t1,0
     536:	0901                	addi	s2,s2,0
     538:	0004                	0x4
     53a:	0301                	addi	t1,t1,0
     53c:	0901                	addi	s2,s2,0
     53e:	0004                	0x4
     540:	0301                	addi	t1,t1,0
     542:	0901                	addi	s2,s2,0
     544:	0004                	0x4
     546:	0301                	addi	t1,t1,0
     548:	0904                	addi	s1,sp,144
     54a:	0004                	0x4
     54c:	0301                	addi	t1,t1,0
     54e:	0901                	addi	s2,s2,0
     550:	0004                	0x4
     552:	0301                	addi	t1,t1,0
     554:	0901                	addi	s2,s2,0
     556:	0004                	0x4
     558:	0301                	addi	t1,t1,0
     55a:	0901                	addi	s2,s2,0
     55c:	0004                	0x4
     55e:	0301                	addi	t1,t1,0
     560:	0901                	addi	s2,s2,0
     562:	0004                	0x4
     564:	0301                	addi	t1,t1,0
     566:	0901                	addi	s2,s2,0
     568:	0004                	0x4
     56a:	0301                	addi	t1,t1,0
     56c:	0901                	addi	s2,s2,0
     56e:	0004                	0x4
     570:	0301                	addi	t1,t1,0
     572:	0901                	addi	s2,s2,0
     574:	0004                	0x4
     576:	0301                	addi	t1,t1,0
     578:	0901                	addi	s2,s2,0
     57a:	0004                	0x4
     57c:	0301                	addi	t1,t1,0
     57e:	0901                	addi	s2,s2,0
     580:	0004                	0x4
     582:	0301                	addi	t1,t1,0
     584:	0901                	addi	s2,s2,0
     586:	0004                	0x4
     588:	0301                	addi	t1,t1,0
     58a:	0901                	addi	s2,s2,0
     58c:	0004                	0x4
     58e:	0301                	addi	t1,t1,0
     590:	0901                	addi	s2,s2,0
     592:	0004                	0x4
     594:	0301                	addi	t1,t1,0
     596:	0901                	addi	s2,s2,0
     598:	0004                	0x4
     59a:	0301                	addi	t1,t1,0
     59c:	0901                	addi	s2,s2,0
     59e:	0004                	0x4
     5a0:	0301                	addi	t1,t1,0
     5a2:	0901                	addi	s2,s2,0
     5a4:	0004                	0x4
     5a6:	0301                	addi	t1,t1,0
     5a8:	0901                	addi	s2,s2,0
     5aa:	0004                	0x4
     5ac:	0301                	addi	t1,t1,0
     5ae:	0901                	addi	s2,s2,0
     5b0:	0004                	0x4
     5b2:	0301                	addi	t1,t1,0
     5b4:	0901                	addi	s2,s2,0
     5b6:	0004                	0x4
     5b8:	0301                	addi	t1,t1,0
     5ba:	0901                	addi	s2,s2,0
     5bc:	0004                	0x4
     5be:	0301                	addi	t1,t1,0
     5c0:	0901                	addi	s2,s2,0
     5c2:	0004                	0x4
     5c4:	0301                	addi	t1,t1,0
     5c6:	0901                	addi	s2,s2,0
     5c8:	0004                	0x4
     5ca:	0301                	addi	t1,t1,0
     5cc:	0901                	addi	s2,s2,0
     5ce:	0004                	0x4
     5d0:	0301                	addi	t1,t1,0
     5d2:	0901                	addi	s2,s2,0
     5d4:	0004                	0x4
     5d6:	0301                	addi	t1,t1,0
     5d8:	0901                	addi	s2,s2,0
     5da:	0004                	0x4
     5dc:	0301                	addi	t1,t1,0
     5de:	0901                	addi	s2,s2,0
     5e0:	0004                	0x4
     5e2:	0301                	addi	t1,t1,0
     5e4:	0901                	addi	s2,s2,0
     5e6:	0004                	0x4
     5e8:	0301                	addi	t1,t1,0
     5ea:	0901                	addi	s2,s2,0
     5ec:	0004                	0x4
     5ee:	0301                	addi	t1,t1,0
     5f0:	0901                	addi	s2,s2,0
     5f2:	0004                	0x4
     5f4:	0301                	addi	t1,t1,0
     5f6:	0901                	addi	s2,s2,0
     5f8:	0004                	0x4
     5fa:	0301                	addi	t1,t1,0
     5fc:	0901                	addi	s2,s2,0
     5fe:	0004                	0x4
     600:	0301                	addi	t1,t1,0
     602:	0901                	addi	s2,s2,0
     604:	0004                	0x4
     606:	0301                	addi	t1,t1,0
     608:	0901                	addi	s2,s2,0
     60a:	0004                	0x4
     60c:	0301                	addi	t1,t1,0
     60e:	0901                	addi	s2,s2,0
     610:	0004                	0x4
     612:	0301                	addi	t1,t1,0
     614:	0901                	addi	s2,s2,0
     616:	0004                	0x4
     618:	0301                	addi	t1,t1,0
     61a:	0901                	addi	s2,s2,0
     61c:	0004                	0x4
     61e:	0301                	addi	t1,t1,0
     620:	00040907          	0x40907
     624:	0301                	addi	t1,t1,0
     626:	0902                	c.slli64	s2
     628:	0008                	0x8
     62a:	0301                	addi	t1,t1,0
     62c:	00040903          	lb	s2,0(s0)
     630:	0301                	addi	t1,t1,0
     632:	0901                	addi	s2,s2,0
     634:	0008                	0x8
     636:	0301                	addi	t1,t1,0
     638:	0902                	c.slli64	s2
     63a:	0004                	0x4
     63c:	0301                	addi	t1,t1,0
     63e:	0901                	addi	s2,s2,0
     640:	0004                	0x4
     642:	0301                	addi	t1,t1,0
     644:	0901                	addi	s2,s2,0
     646:	0004                	0x4
     648:	0301                	addi	t1,t1,0
     64a:	0901                	addi	s2,s2,0
     64c:	0004                	0x4
     64e:	0301                	addi	t1,t1,0
     650:	0904                	addi	s1,sp,144
     652:	0004                	0x4
     654:	0301                	addi	t1,t1,0
     656:	0901                	addi	s2,s2,0
     658:	0008                	0x8
     65a:	0301                	addi	t1,t1,0
     65c:	0902                	c.slli64	s2
     65e:	0004                	0x4
     660:	0301                	addi	t1,t1,0
     662:	0901                	addi	s2,s2,0
     664:	0008                	0x8
     666:	0301                	addi	t1,t1,0
     668:	0901                	addi	s2,s2,0
     66a:	0004                	0x4
     66c:	0301                	addi	t1,t1,0
     66e:	0901                	addi	s2,s2,0
     670:	0004                	0x4
     672:	0301                	addi	t1,t1,0
     674:	0901                	addi	s2,s2,0
     676:	0004                	0x4
     678:	0301                	addi	t1,t1,0
     67a:	0901                	addi	s2,s2,0
     67c:	0004                	0x4
     67e:	0301                	addi	t1,t1,0
     680:	0901                	addi	s2,s2,0
     682:	0004                	0x4
     684:	0301                	addi	t1,t1,0
     686:	0901                	addi	s2,s2,0
     688:	0004                	0x4
     68a:	0301                	addi	t1,t1,0
     68c:	0902                	c.slli64	s2
     68e:	0004                	0x4
     690:	0301                	addi	t1,t1,0
     692:	0908                	addi	a0,sp,144
     694:	0004                	0x4
     696:	0301                	addi	t1,t1,0
     698:	0902                	c.slli64	s2
     69a:	0004                	0x4
     69c:	0901                	addi	s2,s2,0
     69e:	0004                	0x4
     6a0:	0100                	addi	s0,sp,128
     6a2:	cb01                	beqz	a4,6b2 <_heap_size+0x6b2>
     6a4:	05000003          	lb	zero,80(zero) # 50 <_heap_size+0x50>
     6a8:	0400                	addi	s0,sp,512
     6aa:	4e00                	lw	s0,24(a2)
     6ac:	0000                	unimp
     6ae:	0100                	addi	s0,sp,128
     6b0:	0101                	addi	sp,sp,0
     6b2:	000d0efb          	0xd0efb
     6b6:	0101                	addi	sp,sp,0
     6b8:	0101                	addi	sp,sp,0
     6ba:	0000                	unimp
     6bc:	0100                	addi	s0,sp,128
     6be:	0000                	unimp
     6c0:	0101                	addi	sp,sp,0
     6c2:	1f01                	addi	t5,t5,-32
     6c4:	1d05                	addi	s10,s10,-31
     6c6:	0001                	nop
     6c8:	4800                	lw	s0,16(s0)
     6ca:	0000                	unimp
     6cc:	6900                	flw	fs0,16(a0)
     6ce:	0001                	nop
     6d0:	a300                	fsd	fs0,0(a4)
     6d2:	0001                	nop
     6d4:	d600                	sw	s0,40(a2)
     6d6:	0001                	nop
     6d8:	0200                	addi	s0,sp,256
     6da:	1f01                	addi	t5,t5,-32
     6dc:	0f02                	c.slli64	t5
     6de:	5c06                	lw	s8,96(sp)
     6e0:	0001                	nop
     6e2:	0000                	unimp
     6e4:	0160                	addi	s0,sp,140
     6e6:	0000                	unimp
     6e8:	0501                	addi	a0,a0,0
     6ea:	0002                	c.slli64	zero
     6ec:	0200                	addi	s0,sp,256
     6ee:	00e0                	addi	s0,sp,76
     6f0:	0000                	unimp
     6f2:	0000f103          	0xf103
     6f6:	0400                	addi	s0,sp,512
     6f8:	020e                	slli	tp,tp,0x3
     6fa:	0000                	unimp
     6fc:	0500                	addi	s0,sp,640
     6fe:	0001                	nop
     700:	0205                	addi	tp,tp,1
     702:	0274                	addi	a3,sp,268
     704:	8000                	0x8000
     706:	05011703          	lh	a4,80(sp)
     70a:	09070303          	lb	t1,144(a4)
     70e:	0000                	unimp
     710:	0501                	addi	a0,a0,0
     712:	0601                	addi	a2,a2,0
     714:	00097903          	0x97903
     718:	0100                	addi	s0,sp,128
     71a:	0705                	addi	a4,a4,1
     71c:	04090b03          	lb	s6,64(s2)
     720:	0100                	addi	s0,sp,128
     722:	0105                	addi	sp,sp,1
     724:	04097503          	0x4097503
     728:	0100                	addi	s0,sp,128
     72a:	0705                	addi	a4,a4,1
     72c:	14090b03          	lb	s6,320(s2)
     730:	0100                	addi	s0,sp,128
     732:	0105                	addi	sp,sp,1
     734:	04097503          	0x4097503
     738:	0100                	addi	s0,sp,128
     73a:	0305                	addi	t1,t1,1
     73c:	0306                	slli	t1,t1,0x1
     73e:	0908                	addi	a0,sp,144
     740:	0004                	0x4
     742:	0501                	addi	a0,a0,0
     744:	0601                	addi	a2,a2,0
     746:	00097803          	0x97803
     74a:	0100                	addi	s0,sp,128
     74c:	0305                	addi	t1,t1,1
     74e:	0306                	slli	t1,t1,0x1
     750:	0909                	addi	s2,s2,2
     752:	0004                	0x4
     754:	0501                	addi	a0,a0,0
     756:	0609                	addi	a2,a2,2
     758:	00090003          	lb	zero,0(s2)
     75c:	0100                	addi	s0,sp,128
     75e:	0305                	addi	t1,t1,1
     760:	0306                	slli	t1,t1,0x1
     762:	0901                	addi	s2,s2,0
     764:	0004                	0x4
     766:	0301                	addi	t1,t1,0
     768:	0901                	addi	s2,s2,0
     76a:	0000                	unimp
     76c:	0501                	addi	a0,a0,0
     76e:	0606                	slli	a2,a2,0x1
     770:	00090003          	lb	zero,0(s2)
     774:	0100                	addi	s0,sp,128
     776:	0200                	addi	s0,sp,256
     778:	0104                	addi	s1,sp,128
     77a:	04090003          	lb	zero,64(s2)
     77e:	0100                	addi	s0,sp,128
     780:	0305                	addi	t1,t1,1
     782:	0306                	slli	t1,t1,0x1
     784:	090a                	slli	s2,s2,0x2
     786:	0008                	0x8
     788:	0501                	addi	a0,a0,0
     78a:	00030607          	0x30607
     78e:	0009                	c.nop	2
     790:	0100                	addi	s0,sp,128
     792:	0605                	addi	a2,a2,1
     794:	08090003          	lb	zero,128(s2)
     798:	0100                	addi	s0,sp,128
     79a:	1805                	addi	a6,a6,-31
     79c:	0306                	slli	t1,t1,0x1
     79e:	0902                	c.slli64	s2
     7a0:	0004                	0x4
     7a2:	0501                	addi	a0,a0,0
     7a4:	09020303          	lb	t1,144(tp) # 90 <_heap_size+0x90>
     7a8:	0000                	unimp
     7aa:	0301                	addi	t1,t1,0
     7ac:	0901                	addi	s2,s2,0
     7ae:	0000                	unimp
     7b0:	0301                	addi	t1,t1,0
     7b2:	0901                	addi	s2,s2,0
     7b4:	0000                	unimp
     7b6:	0501                	addi	a0,a0,0
     7b8:	0628                	addi	a0,sp,776
     7ba:	00090003          	lb	zero,0(s2)
     7be:	0100                	addi	s0,sp,128
     7c0:	0305                	addi	t1,t1,1
     7c2:	0306                	slli	t1,t1,0x1
     7c4:	0902                	c.slli64	s2
     7c6:	0004                	0x4
     7c8:	0501                	addi	a0,a0,0
     7ca:	00030607          	0x30607
     7ce:	0009                	c.nop	2
     7d0:	0100                	addi	s0,sp,128
     7d2:	0605                	addi	a2,a2,1
     7d4:	04090003          	lb	zero,64(s2)
     7d8:	0100                	addi	s0,sp,128
     7da:	0d05                	addi	s10,s10,1
     7dc:	0306                	slli	t1,t1,0x1
     7de:	0919                	addi	s2,s2,6
     7e0:	0004                	0x4
     7e2:	0501                	addi	a0,a0,0
     7e4:	0605                	addi	a2,a2,1
     7e6:	04090103          	lb	sp,64(s2)
     7ea:	0100                	addi	s0,sp,128
     7ec:	1805                	addi	a6,a6,-31
     7ee:	0306                	slli	t1,t1,0x1
     7f0:	0900                	addi	s0,sp,144
     7f2:	0028                	addi	a0,sp,8
     7f4:	0501                	addi	a0,a0,0
     7f6:	09020303          	lb	t1,144(tp) # 90 <_heap_size+0x90>
     7fa:	0000                	unimp
     7fc:	0301                	addi	t1,t1,0
     7fe:	0901                	addi	s2,s2,0
     800:	0000                	unimp
     802:	0301                	addi	t1,t1,0
     804:	0901                	addi	s2,s2,0
     806:	0000                	unimp
     808:	0501                	addi	a0,a0,0
     80a:	0606                	slli	a2,a2,0x1
     80c:	00090003          	lb	zero,0(s2)
     810:	0100                	addi	s0,sp,128
     812:	0105                	addi	sp,sp,1
     814:	04090303          	lb	t1,64(s2)
     818:	0100                	addi	s0,sp,128
     81a:	0705                	addi	a4,a4,1
     81c:	0306                	slli	t1,t1,0x1
     81e:	0959                	addi	s2,s2,22
     820:	0020                	addi	s0,sp,8
     822:	0301                	addi	t1,t1,0
     824:	0900                	addi	s0,sp,144
     826:	0004                	0x4
     828:	0501                	addi	a0,a0,0
     82a:	0619                	addi	a2,a2,6
     82c:	04097f03          	0x4097f03
     830:	0100                	addi	s0,sp,128
     832:	0705                	addi	a4,a4,1
     834:	04090103          	lb	sp,64(s2)
     838:	0100                	addi	s0,sp,128
     83a:	0306                	slli	t1,t1,0x1
     83c:	0900                	addi	s0,sp,144
     83e:	0008                	0x8
     840:	0501                	addi	a0,a0,0
     842:	030c                	addi	a1,sp,384
     844:	097f                	0x97f
     846:	0000                	unimp
     848:	0501                	addi	a0,a0,0
     84a:	09010307          	0x9010307
     84e:	0004                	0x4
     850:	0301                	addi	t1,t1,0
     852:	0900                	addi	s0,sp,144
     854:	0004                	0x4
     856:	0501                	addi	a0,a0,0
     858:	0619                	addi	a2,a2,6
     85a:	04097f03          	0x4097f03
     85e:	0100                	addi	s0,sp,128
     860:	0705                	addi	a4,a4,1
     862:	04090103          	lb	sp,64(s2)
     866:	0100                	addi	s0,sp,128
     868:	0306                	slli	t1,t1,0x1
     86a:	0900                	addi	s0,sp,144
     86c:	0008                	0x8
     86e:	0501                	addi	a0,a0,0
     870:	030c                	addi	a1,sp,384
     872:	097f                	0x97f
     874:	0000                	unimp
     876:	0501                	addi	a0,a0,0
     878:	0304                	addi	s1,sp,384
     87a:	0008090b          	0x8090b
     87e:	0501                	addi	a0,a0,0
     880:	0609                	addi	a2,a2,2
     882:	00090003          	lb	zero,0(s2)
     886:	0100                	addi	s0,sp,128
     888:	0405                	addi	s0,s0,1
     88a:	0306                	slli	t1,t1,0x1
     88c:	0901                	addi	s2,s2,0
     88e:	0024                	addi	s1,sp,8
     890:	0301                	addi	t1,t1,0
     892:	0901                	addi	s2,s2,0
     894:	0000                	unimp
     896:	0301                	addi	t1,t1,0
     898:	0901                	addi	s2,s2,0
     89a:	0000                	unimp
     89c:	0301                	addi	t1,t1,0
     89e:	0901                	addi	s2,s2,0
     8a0:	0000                	unimp
     8a2:	0301                	addi	t1,t1,0
     8a4:	0901                	addi	s2,s2,0
     8a6:	0000                	unimp
     8a8:	0301                	addi	t1,t1,0
     8aa:	0901                	addi	s2,s2,0
     8ac:	0000                	unimp
     8ae:	0301                	addi	t1,t1,0
     8b0:	0901                	addi	s2,s2,0
     8b2:	0000                	unimp
     8b4:	0301                	addi	t1,t1,0
     8b6:	0901                	addi	s2,s2,0
     8b8:	0000                	unimp
     8ba:	0501                	addi	a0,a0,0
     8bc:	060a                	slli	a2,a2,0x2
     8be:	04090103          	lb	sp,64(s2)
     8c2:	0100                	addi	s0,sp,128
     8c4:	0405                	addi	s0,s0,1
     8c6:	0306                	slli	t1,t1,0x1
     8c8:	0900                	addi	s0,sp,144
     8ca:	0028                	addi	a0,sp,8
     8cc:	0301                	addi	t1,t1,0
     8ce:	0901                	addi	s2,s2,0
     8d0:	0000                	unimp
     8d2:	0301                	addi	t1,t1,0
     8d4:	0901                	addi	s2,s2,0
     8d6:	0000                	unimp
     8d8:	0301                	addi	t1,t1,0
     8da:	0901                	addi	s2,s2,0
     8dc:	0000                	unimp
     8de:	0301                	addi	t1,t1,0
     8e0:	0901                	addi	s2,s2,0
     8e2:	0000                	unimp
     8e4:	0301                	addi	t1,t1,0
     8e6:	0901                	addi	s2,s2,0
     8e8:	0000                	unimp
     8ea:	0301                	addi	t1,t1,0
     8ec:	0901                	addi	s2,s2,0
     8ee:	0000                	unimp
     8f0:	0301                	addi	t1,t1,0
     8f2:	0901                	addi	s2,s2,0
     8f4:	0000                	unimp
     8f6:	0301                	addi	t1,t1,0
     8f8:	0901                	addi	s2,s2,0
     8fa:	0000                	unimp
     8fc:	0501                	addi	a0,a0,0
     8fe:	0311                	addi	t1,t1,4
     900:	096d                	addi	s2,s2,27
     902:	0000                	unimp
     904:	0501                	addi	a0,a0,0
     906:	09700307          	0x9700307
     90a:	0008                	0x8
     90c:	0501                	addi	a0,a0,0
     90e:	060a                	slli	a2,a2,0x2
     910:	04090003          	lb	zero,64(s2)
     914:	0100                	addi	s0,sp,128
     916:	0405                	addi	s0,s0,1
     918:	04090203          	lb	tp,64(s2)
     91c:	0100                	addi	s0,sp,128
     91e:	0105                	addi	sp,sp,1
     920:	18092d03          	lw	s10,384(s2)
     924:	0100                	addi	s0,sp,128
     926:	0405                	addi	s0,s0,1
     928:	20095303          	lhu	t1,512(s2)
     92c:	0100                	addi	s0,sp,128
     92e:	0105                	addi	sp,sp,1
     930:	0306                	slli	t1,t1,0x1
     932:	0014092f          	0x14092f
     936:	0501                	addi	a0,a0,0
     938:	09010303          	lb	t1,144(sp)
     93c:	0000                	unimp
     93e:	0501                	addi	a0,a0,0
     940:	00030617          	auipc	a2,0x30
     944:	0009                	c.nop	2
     946:	0100                	addi	s0,sp,128
     948:	2805                	jal	978 <_stack_size+0x178>
     94a:	04090003          	lb	zero,64(s2)
     94e:	0100                	addi	s0,sp,128
     950:	0605                	addi	a2,a2,1
     952:	04090003          	lb	zero,64(s2)
     956:	0100                	addi	s0,sp,128
     958:	0505                	addi	a0,a0,1
     95a:	0306                	slli	t1,t1,0x1
     95c:	0901                	addi	s2,s2,0
     95e:	0004                	0x4
     960:	0301                	addi	t1,t1,0
     962:	0901                	addi	s2,s2,0
     964:	0000                	unimp
     966:	0301                	addi	t1,t1,0
     968:	0901                	addi	s2,s2,0
     96a:	0000                	unimp
     96c:	0501                	addi	a0,a0,0
     96e:	061f 0003 0009      	0x90003061f
     974:	0100                	addi	s0,sp,128
     976:	1605                	addi	a2,a2,-31
     978:	04090003          	lb	zero,64(s2)
     97c:	0100                	addi	s0,sp,128
     97e:	0505                	addi	a0,a0,1
     980:	0306                	slli	t1,t1,0x1
     982:	0901                	addi	s2,s2,0
     984:	0004                	0x4
     986:	0501                	addi	a0,a0,0
     988:	0900030f          	0x900030f
     98c:	0000                	unimp
     98e:	0501                	addi	a0,a0,0
     990:	0609                	addi	a2,a2,2
     992:	0c090303          	lb	t1,192(s2)
     996:	0100                	addi	s0,sp,128
     998:	0705                	addi	a4,a4,1
     99a:	0306                	slli	t1,t1,0x1
     99c:	0901                	addi	s2,s2,0
     99e:	0004                	0x4
     9a0:	0501                	addi	a0,a0,0
     9a2:	0609                	addi	a2,a2,2
     9a4:	00090003          	lb	zero,0(s2)
     9a8:	0100                	addi	s0,sp,128
     9aa:	0f05                	addi	t5,t5,1
     9ac:	0306                	slli	t1,t1,0x1
     9ae:	097c                	addi	a5,sp,156
     9b0:	0004                	0x4
     9b2:	0501                	addi	a0,a0,0
     9b4:	09010307          	0x9010307
     9b8:	0004                	0x4
     9ba:	0301                	addi	t1,t1,0
     9bc:	0902                	c.slli64	s2
     9be:	0000                	unimp
     9c0:	0501                	addi	a0,a0,0
     9c2:	060a                	slli	a2,a2,0x2
     9c4:	00097e03          	0x97e03
     9c8:	0100                	addi	s0,sp,128
     9ca:	1a05                	addi	s4,s4,-31
     9cc:	0c090503          	lb	a0,192(s2)
     9d0:	0100                	addi	s0,sp,128
     9d2:	0705                	addi	a4,a4,1
     9d4:	04090003          	lb	zero,64(s2)
     9d8:	0100                	addi	s0,sp,128
     9da:	0905                	addi	s2,s2,1
     9dc:	04097d03          	0x4097d03
     9e0:	0100                	addi	s0,sp,128
     9e2:	0505                	addi	a0,a0,1
     9e4:	0306                	slli	t1,t1,0x1
     9e6:	00040903          	lb	s2,0(s0)
     9ea:	0301                	addi	t1,t1,0
     9ec:	0901                	addi	s2,s2,0
     9ee:	0000                	unimp
     9f0:	0301                	addi	t1,t1,0
     9f2:	0901                	addi	s2,s2,0
     9f4:	0000                	unimp
     9f6:	0501                	addi	a0,a0,0
     9f8:	05030613          	addi	a2,t1,80 # 901056c <_stack_size+0x900fd6c>
     9fc:	0809                	addi	a6,a6,2
     9fe:	0100                	addi	s0,sp,128
     a00:	04097f03          	0x4097f03
     a04:	0100                	addi	s0,sp,128
     a06:	0505                	addi	a0,a0,1
     a08:	0306                	slli	t1,t1,0x1
     a0a:	0901                	addi	s2,s2,0
     a0c:	0004                	0x4
     a0e:	0501                	addi	a0,a0,0
     a10:	0619                	addi	a2,a2,6
     a12:	00090003          	lb	zero,0(s2)
     a16:	0100                	addi	s0,sp,128
     a18:	0505                	addi	a0,a0,1
     a1a:	0306                	slli	t1,t1,0x1
     a1c:	0901                	addi	s2,s2,0
     a1e:	0004                	0x4
     a20:	0501                	addi	a0,a0,0
     a22:	0608                	addi	a0,sp,768
     a24:	00090003          	lb	zero,0(s2)
     a28:	0100                	addi	s0,sp,128
     a2a:	0505                	addi	a0,a0,1
     a2c:	0306                	slli	t1,t1,0x1
     a2e:	097e                	slli	s2,s2,0x1f
     a30:	0004                	0x4
     a32:	0501                	addi	a0,a0,0
     a34:	030a                	slli	t1,t1,0x2
     a36:	097f                	0x97f
     a38:	0000                	unimp
     a3a:	0501                	addi	a0,a0,0
     a3c:	0619                	addi	a2,a2,6
     a3e:	00090103          	lb	sp,0(s2)
     a42:	0100                	addi	s0,sp,128
     a44:	0a05                	addi	s4,s4,1
     a46:	04097f03          	0x4097f03
     a4a:	0100                	addi	s0,sp,128
     a4c:	04090703          	lb	a4,64(s2)
     a50:	0100                	addi	s0,sp,128
     a52:	0105                	addi	sp,sp,1
     a54:	04090103          	lb	sp,64(s2)
     a58:	0100                	addi	s0,sp,128
     a5a:	0705                	addi	a4,a4,1
     a5c:	0306                	slli	t1,t1,0x1
     a5e:	097c                	addi	a5,sp,156
     a60:	0004                	0x4
     a62:	0501                	addi	a0,a0,0
     a64:	0611                	addi	a2,a2,4
     a66:	00090003          	lb	zero,0(s2)
     a6a:	0100                	addi	s0,sp,128
     a6c:	0809                	addi	a6,a6,2
     a6e:	0000                	unimp
     a70:	0101                	addi	sp,sp,0
     a72:	194d                	addi	s2,s2,-13
     a74:	0000                	unimp
     a76:	0005                	c.nop	1
     a78:	0004                	0x4
     a7a:	004e                	c.slli	zero,0x13
     a7c:	0000                	unimp
     a7e:	0101                	addi	sp,sp,0
     a80:	fb01                	bnez	a4,990 <_stack_size+0x190>
     a82:	0d0e                	slli	s10,s10,0x3
     a84:	0100                	addi	s0,sp,128
     a86:	0101                	addi	sp,sp,0
     a88:	0001                	nop
     a8a:	0000                	unimp
     a8c:	0001                	nop
     a8e:	0100                	addi	s0,sp,128
     a90:	0101                	addi	sp,sp,0
     a92:	051f 0011 0000      	0x11051f
     a98:	0048                	addi	a0,sp,4
     a9a:	0000                	unimp
     a9c:	004c                	addi	a1,sp,4
     a9e:	0000                	unimp
     aa0:	007f                	0x7f
     aa2:	0000                	unimp
     aa4:	00000043          	fmadd.s	ft0,ft0,ft0,ft0,rne
     aa8:	0102                	c.slli64	sp
     aaa:	021f 060f 0219      	0x219060f021f
     ab0:	0000                	unimp
     ab2:	1d00                	addi	s0,sp,688
     ab4:	0002                	c.slli64	zero
     ab6:	0100                	addi	s0,sp,128
     ab8:	00e0                	addi	s0,sp,76
     aba:	0000                	unimp
     abc:	f102                	fsw	ft0,160(sp)
     abe:	0000                	unimp
     ac0:	0300                	addi	s0,sp,384
     ac2:	00000223          	sb	zero,4(zero) # 4 <_heap_size+0x4>
     ac6:	0304                	addi	s1,sp,384
     ac8:	0001                	nop
     aca:	0400                	addi	s0,sp,512
     acc:	0105                	addi	sp,sp,1
     ace:	0500                	addi	s0,sp,640
     ad0:	6802                	flw	fa6,0(sp)
     ad2:	0004                	0x4
     ad4:	0380                	addi	s0,sp,448
     ad6:	00c9                	addi	ra,ra,18
     ad8:	0501                	addi	a0,a0,0
     ada:	09010303          	lb	t1,144(sp)
     ade:	0000                	unimp
     ae0:	0301                	addi	t1,t1,0
     ae2:	0901                	addi	s2,s2,0
     ae4:	0000                	unimp
     ae6:	0301                	addi	t1,t1,0
     ae8:	00000903          	lb	s2,0(zero) # 0 <_heap_size>
     aec:	0501                	addi	a0,a0,0
     aee:	0311                	addi	t1,t1,4
     af0:	0900                	addi	s0,sp,144
     af2:	0000                	unimp
     af4:	0501                	addi	a0,a0,0
     af6:	0601                	addi	a2,a2,0
     af8:	04097b03          	0x4097b03
     afc:	0100                	addi	s0,sp,128
     afe:	0505                	addi	a0,a0,1
     b00:	0306                	slli	t1,t1,0x1
     b02:	00480907          	0x480907
     b06:	0501                	addi	a0,a0,0
     b08:	0620                	addi	s0,sp,776
     b0a:	00090003          	lb	zero,0(s2)
     b0e:	0100                	addi	s0,sp,128
     b10:	0505                	addi	a0,a0,1
     b12:	0306                	slli	t1,t1,0x1
     b14:	0901                	addi	s2,s2,0
     b16:	0004                	0x4
     b18:	0301                	addi	t1,t1,0
     b1a:	0901                	addi	s2,s2,0
     b1c:	0000                	unimp
     b1e:	0301                	addi	t1,t1,0
     b20:	0901                	addi	s2,s2,0
     b22:	0000                	unimp
     b24:	0501                	addi	a0,a0,0
     b26:	7d03061b          	0x7d03061b
     b2a:	0009                	c.nop	2
     b2c:	0100                	addi	s0,sp,128
     b2e:	1705                	addi	a4,a4,-31
     b30:	0306                	slli	t1,t1,0x1
     b32:	097e                	slli	s2,s2,0x1f
     b34:	0004                	0x4
     b36:	0501                	addi	a0,a0,0
     b38:	0311                	addi	t1,t1,4
     b3a:	0900                	addi	s0,sp,144
     b3c:	0000                	unimp
     b3e:	0501                	addi	a0,a0,0
     b40:	0305                	addi	t1,t1,1
     b42:	0902                	c.slli64	s2
     b44:	0000                	unimp
     b46:	0501                	addi	a0,a0,0
     b48:	0620                	addi	s0,sp,776
     b4a:	00090003          	lb	zero,0(s2)
     b4e:	0100                	addi	s0,sp,128
     b50:	0505                	addi	a0,a0,1
     b52:	0306                	slli	t1,t1,0x1
     b54:	0901                	addi	s2,s2,0
     b56:	0004                	0x4
     b58:	0301                	addi	t1,t1,0
     b5a:	0901                	addi	s2,s2,0
     b5c:	0000                	unimp
     b5e:	0301                	addi	t1,t1,0
     b60:	0901                	addi	s2,s2,0
     b62:	0000                	unimp
     b64:	0501                	addi	a0,a0,0
     b66:	7d03061b          	0x7d03061b
     b6a:	0009                	c.nop	2
     b6c:	0100                	addi	s0,sp,128
     b6e:	1705                	addi	a4,a4,-31
     b70:	0306                	slli	t1,t1,0x1
     b72:	097e                	slli	s2,s2,0x1f
     b74:	0004                	0x4
     b76:	0501                	addi	a0,a0,0
     b78:	0311                	addi	t1,t1,4
     b7a:	0900                	addi	s0,sp,144
     b7c:	0000                	unimp
     b7e:	0501                	addi	a0,a0,0
     b80:	0305                	addi	t1,t1,1
     b82:	0902                	c.slli64	s2
     b84:	0000                	unimp
     b86:	0501                	addi	a0,a0,0
     b88:	0620                	addi	s0,sp,776
     b8a:	00090003          	lb	zero,0(s2)
     b8e:	0100                	addi	s0,sp,128
     b90:	0505                	addi	a0,a0,1
     b92:	0306                	slli	t1,t1,0x1
     b94:	0901                	addi	s2,s2,0
     b96:	0004                	0x4
     b98:	0301                	addi	t1,t1,0
     b9a:	0901                	addi	s2,s2,0
     b9c:	0000                	unimp
     b9e:	0301                	addi	t1,t1,0
     ba0:	0901                	addi	s2,s2,0
     ba2:	0000                	unimp
     ba4:	0501                	addi	a0,a0,0
     ba6:	7d03061b          	0x7d03061b
     baa:	0009                	c.nop	2
     bac:	0100                	addi	s0,sp,128
     bae:	1705                	addi	a4,a4,-31
     bb0:	0306                	slli	t1,t1,0x1
     bb2:	097e                	slli	s2,s2,0x1f
     bb4:	0004                	0x4
     bb6:	0501                	addi	a0,a0,0
     bb8:	0311                	addi	t1,t1,4
     bba:	0900                	addi	s0,sp,144
     bbc:	0000                	unimp
     bbe:	0501                	addi	a0,a0,0
     bc0:	0305                	addi	t1,t1,1
     bc2:	0902                	c.slli64	s2
     bc4:	0000                	unimp
     bc6:	0501                	addi	a0,a0,0
     bc8:	0620                	addi	s0,sp,776
     bca:	00090003          	lb	zero,0(s2)
     bce:	0100                	addi	s0,sp,128
     bd0:	0505                	addi	a0,a0,1
     bd2:	0306                	slli	t1,t1,0x1
     bd4:	0901                	addi	s2,s2,0
     bd6:	0004                	0x4
     bd8:	0301                	addi	t1,t1,0
     bda:	0901                	addi	s2,s2,0
     bdc:	0000                	unimp
     bde:	0301                	addi	t1,t1,0
     be0:	0901                	addi	s2,s2,0
     be2:	0000                	unimp
     be4:	0501                	addi	a0,a0,0
     be6:	7d03061b          	0x7d03061b
     bea:	0009                	c.nop	2
     bec:	0100                	addi	s0,sp,128
     bee:	1705                	addi	a4,a4,-31
     bf0:	0306                	slli	t1,t1,0x1
     bf2:	097e                	slli	s2,s2,0x1f
     bf4:	0004                	0x4
     bf6:	0501                	addi	a0,a0,0
     bf8:	0311                	addi	t1,t1,4
     bfa:	0900                	addi	s0,sp,144
     bfc:	0000                	unimp
     bfe:	0501                	addi	a0,a0,0
     c00:	0614                	addi	a3,sp,768
     c02:	00092803          	lw	a6,0(s2)
     c06:	0100                	addi	s0,sp,128
     c08:	0a05                	addi	s4,s4,1
     c0a:	44096103          	0x44096103
     c0e:	0100                	addi	s0,sp,128
     c10:	1405                	addi	s0,s0,-31
     c12:	08091f03          	lh	t5,128(s2)
     c16:	0100                	addi	s0,sp,128
     c18:	1205                	addi	tp,tp,-31
     c1a:	04096103          	0x4096103
     c1e:	0100                	addi	s0,sp,128
     c20:	1005                	c.nop	-31
     c22:	08092403          	lw	s0,128(s2)
     c26:	0100                	addi	s0,sp,128
     c28:	1405                	addi	s0,s0,-31
     c2a:	08097b03          	0x8097b03
     c2e:	0100                	addi	s0,sp,128
     c30:	0905                	addi	s2,s2,1
     c32:	0306                	slli	t1,t1,0x1
     c34:	0901                	addi	s2,s2,0
     c36:	0004                	0x4
     c38:	0501                	addi	a0,a0,0
     c3a:	0614                	addi	a3,sp,768
     c3c:	00090003          	lb	zero,0(s2)
     c40:	0100                	addi	s0,sp,128
     c42:	0905                	addi	s2,s2,1
     c44:	0306                	slli	t1,t1,0x1
     c46:	0901                	addi	s2,s2,0
     c48:	0004                	0x4
     c4a:	0501                	addi	a0,a0,0
     c4c:	0614                	addi	a3,sp,768
     c4e:	00090003          	lb	zero,0(s2)
     c52:	0100                	addi	s0,sp,128
     c54:	0705                	addi	a4,a4,1
     c56:	0306                	slli	t1,t1,0x1
     c58:	00040903          	lb	s2,0(s0)
     c5c:	0501                	addi	a0,a0,0
     c5e:	0610                	addi	a2,sp,768
     c60:	00090003          	lb	zero,0(s2)
     c64:	0100                	addi	s0,sp,128
     c66:	0505                	addi	a0,a0,1
     c68:	0200                	addi	s0,sp,256
     c6a:	0204                	addi	s1,sp,256
     c6c:	0306                	slli	t1,t1,0x1
     c6e:	090e                	slli	s2,s2,0x3
     c70:	0004                	0x4
     c72:	0501                	addi	a0,a0,0
     c74:	0010                	0x10
     c76:	0402                	c.slli64	s0
     c78:	0302                	c.slli64	t1
     c7a:	0900                	addi	s0,sp,144
     c7c:	0000                	unimp
     c7e:	0501                	addi	a0,a0,0
     c80:	0005                	c.nop	1
     c82:	0402                	c.slli64	s0
     c84:	0302                	c.slli64	t1
     c86:	0901                	addi	s2,s2,0
     c88:	0000                	unimp
     c8a:	0501                	addi	a0,a0,0
     c8c:	0015                	c.nop	5
     c8e:	0402                	c.slli64	s0
     c90:	0602                	c.slli64	a2
     c92:	00090003          	lb	zero,0(s2)
     c96:	0100                	addi	s0,sp,128
     c98:	0200                	addi	s0,sp,256
     c9a:	0204                	addi	s1,sp,256
     c9c:	04090103          	lb	sp,64(s2)
     ca0:	0100                	addi	s0,sp,128
     ca2:	0200                	addi	s0,sp,256
     ca4:	0204                	addi	s1,sp,256
     ca6:	04090103          	lb	sp,64(s2)
     caa:	0100                	addi	s0,sp,128
     cac:	0200                	addi	s0,sp,256
     cae:	0204                	addi	s1,sp,256
     cb0:	04090103          	lb	sp,64(s2)
     cb4:	0100                	addi	s0,sp,128
     cb6:	0200                	addi	s0,sp,256
     cb8:	0204                	addi	s1,sp,256
     cba:	04097d03          	0x4097d03
     cbe:	0100                	addi	s0,sp,128
     cc0:	0200                	addi	s0,sp,256
     cc2:	0204                	addi	s1,sp,256
     cc4:	04090103          	lb	sp,64(s2)
     cc8:	0100                	addi	s0,sp,128
     cca:	0200                	addi	s0,sp,256
     ccc:	0204                	addi	s1,sp,256
     cce:	04090103          	lb	sp,64(s2)
     cd2:	0100                	addi	s0,sp,128
     cd4:	0200                	addi	s0,sp,256
     cd6:	0204                	addi	s1,sp,256
     cd8:	04090103          	lb	sp,64(s2)
     cdc:	0100                	addi	s0,sp,128
     cde:	0200                	addi	s0,sp,256
     ce0:	0204                	addi	s1,sp,256
     ce2:	04097d03          	0x4097d03
     ce6:	0100                	addi	s0,sp,128
     ce8:	0505                	addi	a0,a0,1
     cea:	0200                	addi	s0,sp,256
     cec:	0204                	addi	s1,sp,256
     cee:	0306                	slli	t1,t1,0x1
     cf0:	0901                	addi	s2,s2,0
     cf2:	0004                	0x4
     cf4:	0501                	addi	a0,a0,0
     cf6:	0015                	c.nop	5
     cf8:	0402                	c.slli64	s0
     cfa:	0602                	c.slli64	a2
     cfc:	00090003          	lb	zero,0(s2)
     d00:	0100                	addi	s0,sp,128
     d02:	0505                	addi	a0,a0,1
     d04:	0200                	addi	s0,sp,256
     d06:	0204                	addi	s1,sp,256
     d08:	0306                	slli	t1,t1,0x1
     d0a:	0901                	addi	s2,s2,0
     d0c:	0004                	0x4
     d0e:	0501                	addi	a0,a0,0
     d10:	0015                	c.nop	5
     d12:	0402                	c.slli64	s0
     d14:	0602                	c.slli64	a2
     d16:	00090003          	lb	zero,0(s2)
     d1a:	0100                	addi	s0,sp,128
     d1c:	0505                	addi	a0,a0,1
     d1e:	0200                	addi	s0,sp,256
     d20:	0204                	addi	s1,sp,256
     d22:	0306                	slli	t1,t1,0x1
     d24:	0901                	addi	s2,s2,0
     d26:	0004                	0x4
     d28:	0501                	addi	a0,a0,0
     d2a:	0015                	c.nop	5
     d2c:	0402                	c.slli64	s0
     d2e:	0602                	c.slli64	a2
     d30:	00090003          	lb	zero,0(s2)
     d34:	0100                	addi	s0,sp,128
     d36:	2305                	jal	1256 <_stack_size+0xa56>
     d38:	0200                	addi	s0,sp,256
     d3a:	0204                	addi	s1,sp,256
     d3c:	0306                	slli	t1,t1,0x1
     d3e:	094a                	slli	s2,s2,0x12
     d40:	0004                	0x4
     d42:	0501                	addi	a0,a0,0
     d44:	0012                	c.slli	zero,0x4
     d46:	0402                	c.slli64	s0
     d48:	0302                	c.slli64	t1
     d4a:	0900                	addi	s0,sp,144
     d4c:	0004                	0x4
     d4e:	0501                	addi	a0,a0,0
     d50:	09030307          	0x9030307
     d54:	0048                	addi	a0,sp,4
     d56:	0301                	addi	t1,t1,0
     d58:	0901                	addi	s2,s2,0
     d5a:	0000                	unimp
     d5c:	0301                	addi	t1,t1,0
     d5e:	0901                	addi	s2,s2,0
     d60:	0000                	unimp
     d62:	0301                	addi	t1,t1,0
     d64:	0901                	addi	s2,s2,0
     d66:	0000                	unimp
     d68:	0301                	addi	t1,t1,0
     d6a:	0901                	addi	s2,s2,0
     d6c:	0000                	unimp
     d6e:	0501                	addi	a0,a0,0
     d70:	0305                	addi	t1,t1,1
     d72:	0904                	addi	s1,sp,144
     d74:	0000                	unimp
     d76:	0501                	addi	a0,a0,0
     d78:	0309                	addi	t1,t1,2
     d7a:	00000907          	0x907
     d7e:	0301                	addi	t1,t1,0
     d80:	0901                	addi	s2,s2,0
     d82:	0000                	unimp
     d84:	0301                	addi	t1,t1,0
     d86:	0901                	addi	s2,s2,0
     d88:	0000                	unimp
     d8a:	0301                	addi	t1,t1,0
     d8c:	0901                	addi	s2,s2,0
     d8e:	0000                	unimp
     d90:	0301                	addi	t1,t1,0
     d92:	0901                	addi	s2,s2,0
     d94:	0000                	unimp
     d96:	0301                	addi	t1,t1,0
     d98:	0908                	addi	a0,sp,144
     d9a:	0000                	unimp
     d9c:	0301                	addi	t1,t1,0
     d9e:	0901                	addi	s2,s2,0
     da0:	0000                	unimp
     da2:	0501                	addi	a0,a0,0
     da4:	05030623          	sb	a6,76(t1)
     da8:	0009                	c.nop	2
     daa:	0100                	addi	s0,sp,128
     dac:	2105                	jal	11cc <_stack_size+0x9cc>
     dae:	04090003          	lb	zero,64(s2)
     db2:	0100                	addi	s0,sp,128
     db4:	0b05                	addi	s6,s6,1
     db6:	04096703          	0x4096703
     dba:	0100                	addi	s0,sp,128
     dbc:	1405                	addi	s0,s0,-31
     dbe:	04091303          	lh	t1,64(s2)
     dc2:	0100                	addi	s0,sp,128
     dc4:	04090103          	lb	sp,64(s2)
     dc8:	0100                	addi	s0,sp,128
     dca:	04090103          	lb	sp,64(s2)
     dce:	0100                	addi	s0,sp,128
     dd0:	04090103          	lb	sp,64(s2)
     dd4:	0100                	addi	s0,sp,128
     dd6:	0805                	addi	a6,a6,1
     dd8:	04096a03          	0x4096a03
     ddc:	0100                	addi	s0,sp,128
     dde:	0f05                	addi	t5,t5,1
     de0:	04097c03          	0x4097c03
     de4:	0100                	addi	s0,sp,128
     de6:	04097f03          	0x4097f03
     dea:	0100                	addi	s0,sp,128
     dec:	04097f03          	0x4097f03
     df0:	0100                	addi	s0,sp,128
     df2:	04097f03          	0x4097f03
     df6:	0100                	addi	s0,sp,128
     df8:	0105                	addi	sp,sp,1
     dfa:	08093403          	0x8093403
     dfe:	0100                	addi	s0,sp,128
     e00:	0505                	addi	a0,a0,1
     e02:	0306                	slli	t1,t1,0x1
     e04:	0941                	addi	s2,s2,16
     e06:	0034                	addi	a3,sp,8
     e08:	0501                	addi	a0,a0,0
     e0a:	0620                	addi	s0,sp,776
     e0c:	00090003          	lb	zero,0(s2)
     e10:	0100                	addi	s0,sp,128
     e12:	1b05                	addi	s6,s6,-31
     e14:	04090003          	lb	zero,64(s2)
     e18:	0100                	addi	s0,sp,128
     e1a:	0505                	addi	a0,a0,1
     e1c:	0306                	slli	t1,t1,0x1
     e1e:	0901                	addi	s2,s2,0
     e20:	0004                	0x4
     e22:	0501                	addi	a0,a0,0
     e24:	0620                	addi	s0,sp,776
     e26:	00090003          	lb	zero,0(s2)
     e2a:	0100                	addi	s0,sp,128
     e2c:	1b05                	addi	s6,s6,-31
     e2e:	04090003          	lb	zero,64(s2)
     e32:	0100                	addi	s0,sp,128
     e34:	0505                	addi	a0,a0,1
     e36:	0306                	slli	t1,t1,0x1
     e38:	0901                	addi	s2,s2,0
     e3a:	0004                	0x4
     e3c:	0501                	addi	a0,a0,0
     e3e:	0620                	addi	s0,sp,776
     e40:	00090003          	lb	zero,0(s2)
     e44:	0100                	addi	s0,sp,128
     e46:	1b05                	addi	s6,s6,-31
     e48:	04090003          	lb	zero,64(s2)
     e4c:	0100                	addi	s0,sp,128
     e4e:	0505                	addi	a0,a0,1
     e50:	0306                	slli	t1,t1,0x1
     e52:	0901                	addi	s2,s2,0
     e54:	0004                	0x4
     e56:	0501                	addi	a0,a0,0
     e58:	0620                	addi	s0,sp,776
     e5a:	00090003          	lb	zero,0(s2)
     e5e:	0100                	addi	s0,sp,128
     e60:	1b05                	addi	s6,s6,-31
     e62:	04090003          	lb	zero,64(s2)
     e66:	0100                	addi	s0,sp,128
     e68:	1705                	addi	a4,a4,-31
     e6a:	0306                	slli	t1,t1,0x1
     e6c:	0004097b          	0x4097b
     e70:	0501                	addi	a0,a0,0
     e72:	0311                	addi	t1,t1,4
     e74:	0900                	addi	s0,sp,144
     e76:	0000                	unimp
     e78:	0501                	addi	a0,a0,0
     e7a:	0305                	addi	t1,t1,1
     e7c:	0902                	c.slli64	s2
     e7e:	0000                	unimp
     e80:	0501                	addi	a0,a0,0
     e82:	0620                	addi	s0,sp,776
     e84:	00090003          	lb	zero,0(s2)
     e88:	0100                	addi	s0,sp,128
     e8a:	1b05                	addi	s6,s6,-31
     e8c:	04090003          	lb	zero,64(s2)
     e90:	0100                	addi	s0,sp,128
     e92:	0505                	addi	a0,a0,1
     e94:	0306                	slli	t1,t1,0x1
     e96:	0901                	addi	s2,s2,0
     e98:	0004                	0x4
     e9a:	0501                	addi	a0,a0,0
     e9c:	0620                	addi	s0,sp,776
     e9e:	00090003          	lb	zero,0(s2)
     ea2:	0100                	addi	s0,sp,128
     ea4:	1b05                	addi	s6,s6,-31
     ea6:	04090003          	lb	zero,64(s2)
     eaa:	0100                	addi	s0,sp,128
     eac:	0505                	addi	a0,a0,1
     eae:	0306                	slli	t1,t1,0x1
     eb0:	0901                	addi	s2,s2,0
     eb2:	0004                	0x4
     eb4:	0501                	addi	a0,a0,0
     eb6:	0620                	addi	s0,sp,776
     eb8:	00090003          	lb	zero,0(s2)
     ebc:	0100                	addi	s0,sp,128
     ebe:	1b05                	addi	s6,s6,-31
     ec0:	04090003          	lb	zero,64(s2)
     ec4:	0100                	addi	s0,sp,128
     ec6:	0505                	addi	a0,a0,1
     ec8:	0306                	slli	t1,t1,0x1
     eca:	0901                	addi	s2,s2,0
     ecc:	0004                	0x4
     ece:	0501                	addi	a0,a0,0
     ed0:	0620                	addi	s0,sp,776
     ed2:	00090003          	lb	zero,0(s2)
     ed6:	0100                	addi	s0,sp,128
     ed8:	1b05                	addi	s6,s6,-31
     eda:	04090003          	lb	zero,64(s2)
     ede:	0100                	addi	s0,sp,128
     ee0:	1705                	addi	a4,a4,-31
     ee2:	0306                	slli	t1,t1,0x1
     ee4:	0004097b          	0x4097b
     ee8:	0501                	addi	a0,a0,0
     eea:	0311                	addi	t1,t1,4
     eec:	0900                	addi	s0,sp,144
     eee:	0000                	unimp
     ef0:	0501                	addi	a0,a0,0
     ef2:	0305                	addi	t1,t1,1
     ef4:	0902                	c.slli64	s2
     ef6:	0000                	unimp
     ef8:	0501                	addi	a0,a0,0
     efa:	0620                	addi	s0,sp,776
     efc:	00090003          	lb	zero,0(s2)
     f00:	0100                	addi	s0,sp,128
     f02:	1b05                	addi	s6,s6,-31
     f04:	04090003          	lb	zero,64(s2)
     f08:	0100                	addi	s0,sp,128
     f0a:	0505                	addi	a0,a0,1
     f0c:	0306                	slli	t1,t1,0x1
     f0e:	0901                	addi	s2,s2,0
     f10:	0004                	0x4
     f12:	0501                	addi	a0,a0,0
     f14:	0620                	addi	s0,sp,776
     f16:	00090003          	lb	zero,0(s2)
     f1a:	0100                	addi	s0,sp,128
     f1c:	1b05                	addi	s6,s6,-31
     f1e:	04090003          	lb	zero,64(s2)
     f22:	0100                	addi	s0,sp,128
     f24:	0505                	addi	a0,a0,1
     f26:	0306                	slli	t1,t1,0x1
     f28:	0901                	addi	s2,s2,0
     f2a:	0004                	0x4
     f2c:	0501                	addi	a0,a0,0
     f2e:	0620                	addi	s0,sp,776
     f30:	00090003          	lb	zero,0(s2)
     f34:	0100                	addi	s0,sp,128
     f36:	1b05                	addi	s6,s6,-31
     f38:	04090003          	lb	zero,64(s2)
     f3c:	0100                	addi	s0,sp,128
     f3e:	0505                	addi	a0,a0,1
     f40:	0306                	slli	t1,t1,0x1
     f42:	0901                	addi	s2,s2,0
     f44:	0004                	0x4
     f46:	0501                	addi	a0,a0,0
     f48:	0620                	addi	s0,sp,776
     f4a:	00090003          	lb	zero,0(s2)
     f4e:	0100                	addi	s0,sp,128
     f50:	1b05                	addi	s6,s6,-31
     f52:	04090003          	lb	zero,64(s2)
     f56:	0100                	addi	s0,sp,128
     f58:	1705                	addi	a4,a4,-31
     f5a:	0306                	slli	t1,t1,0x1
     f5c:	0004097b          	0x4097b
     f60:	0501                	addi	a0,a0,0
     f62:	0311                	addi	t1,t1,4
     f64:	0900                	addi	s0,sp,144
     f66:	0000                	unimp
     f68:	0501                	addi	a0,a0,0
     f6a:	0305                	addi	t1,t1,1
     f6c:	0902                	c.slli64	s2
     f6e:	0000                	unimp
     f70:	0501                	addi	a0,a0,0
     f72:	0620                	addi	s0,sp,776
     f74:	00090003          	lb	zero,0(s2)
     f78:	0100                	addi	s0,sp,128
     f7a:	1b05                	addi	s6,s6,-31
     f7c:	04090003          	lb	zero,64(s2)
     f80:	0100                	addi	s0,sp,128
     f82:	0505                	addi	a0,a0,1
     f84:	0306                	slli	t1,t1,0x1
     f86:	0901                	addi	s2,s2,0
     f88:	0004                	0x4
     f8a:	0501                	addi	a0,a0,0
     f8c:	0620                	addi	s0,sp,776
     f8e:	00090003          	lb	zero,0(s2)
     f92:	0100                	addi	s0,sp,128
     f94:	1b05                	addi	s6,s6,-31
     f96:	04090003          	lb	zero,64(s2)
     f9a:	0100                	addi	s0,sp,128
     f9c:	0505                	addi	a0,a0,1
     f9e:	0306                	slli	t1,t1,0x1
     fa0:	0901                	addi	s2,s2,0
     fa2:	0004                	0x4
     fa4:	0501                	addi	a0,a0,0
     fa6:	0620                	addi	s0,sp,776
     fa8:	00090003          	lb	zero,0(s2)
     fac:	0100                	addi	s0,sp,128
     fae:	1b05                	addi	s6,s6,-31
     fb0:	04090003          	lb	zero,64(s2)
     fb4:	0100                	addi	s0,sp,128
     fb6:	0505                	addi	a0,a0,1
     fb8:	0306                	slli	t1,t1,0x1
     fba:	0901                	addi	s2,s2,0
     fbc:	0004                	0x4
     fbe:	0501                	addi	a0,a0,0
     fc0:	0620                	addi	s0,sp,776
     fc2:	00090003          	lb	zero,0(s2)
     fc6:	0100                	addi	s0,sp,128
     fc8:	1b05                	addi	s6,s6,-31
     fca:	04090003          	lb	zero,64(s2)
     fce:	0100                	addi	s0,sp,128
     fd0:	1705                	addi	a4,a4,-31
     fd2:	0306                	slli	t1,t1,0x1
     fd4:	0004097b          	0x4097b
     fd8:	0501                	addi	a0,a0,0
     fda:	0311                	addi	t1,t1,4
     fdc:	0900                	addi	s0,sp,144
     fde:	0000                	unimp
     fe0:	0501                	addi	a0,a0,0
     fe2:	0301                	addi	t1,t1,0
     fe4:	040900cb          	0x40900cb
     fe8:	0100                	addi	s0,sp,128
     fea:	0205                	addi	tp,tp,1
     fec:	00090103          	lb	sp,0(s2)
     ff0:	0100                	addi	s0,sp,128
     ff2:	00090103          	lb	sp,0(s2)
     ff6:	0100                	addi	s0,sp,128
     ff8:	0605                	addi	a2,a2,1
     ffa:	0306                	slli	t1,t1,0x1
     ffc:	0900                	addi	s0,sp,144
     ffe:	0000                	unimp
    1000:	0501                	addi	a0,a0,0
    1002:	0602                	c.slli64	a2
    1004:	08090103          	lb	sp,128(s2)
    1008:	0100                	addi	s0,sp,128
    100a:	1c05                	addi	s8,s8,-31
    100c:	0306                	slli	t1,t1,0x1
    100e:	0900                	addi	s0,sp,144
    1010:	0000                	unimp
    1012:	0501                	addi	a0,a0,0
    1014:	0311                	addi	t1,t1,4
    1016:	0900                	addi	s0,sp,144
    1018:	0004                	0x4
    101a:	0301                	addi	t1,t1,0
    101c:	0901                	addi	s2,s2,0
    101e:	0008                	0x8
    1020:	0301                	addi	t1,t1,0
    1022:	0901                	addi	s2,s2,0
    1024:	0004                	0x4
    1026:	0301                	addi	t1,t1,0
    1028:	097e                	slli	s2,s2,0x1f
    102a:	0004                	0x4
    102c:	0501                	addi	a0,a0,0
    102e:	0602                	c.slli64	a2
    1030:	08090103          	lb	sp,128(s2)
    1034:	0100                	addi	s0,sp,128
    1036:	1105                	addi	sp,sp,-31
    1038:	0306                	slli	t1,t1,0x1
    103a:	0900                	addi	s0,sp,144
    103c:	0000                	unimp
    103e:	0301                	addi	t1,t1,0
    1040:	0902                	c.slli64	s2
    1042:	0004                	0x4
    1044:	0301                	addi	t1,t1,0
    1046:	0901                	addi	s2,s2,0
    1048:	0004                	0x4
    104a:	0301                	addi	t1,t1,0
    104c:	097d                	addi	s2,s2,31
    104e:	0004                	0x4
    1050:	0501                	addi	a0,a0,0
    1052:	0602                	c.slli64	a2
    1054:	08090103          	lb	sp,128(s2)
    1058:	0100                	addi	s0,sp,128
    105a:	1105                	addi	sp,sp,-31
    105c:	0306                	slli	t1,t1,0x1
    105e:	0900                	addi	s0,sp,144
    1060:	0000                	unimp
    1062:	0301                	addi	t1,t1,0
    1064:	00040903          	lb	s2,0(s0)
    1068:	0301                	addi	t1,t1,0
    106a:	0901                	addi	s2,s2,0
    106c:	0004                	0x4
    106e:	0301                	addi	t1,t1,0
    1070:	097c                	addi	a5,sp,156
    1072:	0004                	0x4
    1074:	0501                	addi	a0,a0,0
    1076:	0602                	c.slli64	a2
    1078:	08090103          	lb	sp,128(s2)
    107c:	0100                	addi	s0,sp,128
    107e:	1105                	addi	sp,sp,-31
    1080:	0306                	slli	t1,t1,0x1
    1082:	0900                	addi	s0,sp,144
    1084:	0000                	unimp
    1086:	0301                	addi	t1,t1,0
    1088:	0904                	addi	s1,sp,144
    108a:	0004                	0x4
    108c:	0301                	addi	t1,t1,0
    108e:	0901                	addi	s2,s2,0
    1090:	0004                	0x4
    1092:	0301                	addi	t1,t1,0
    1094:	0004097b          	0x4097b
    1098:	0501                	addi	a0,a0,0
    109a:	0602                	c.slli64	a2
    109c:	08090103          	lb	sp,128(s2)
    10a0:	0100                	addi	s0,sp,128
    10a2:	1105                	addi	sp,sp,-31
    10a4:	0306                	slli	t1,t1,0x1
    10a6:	0900                	addi	s0,sp,144
    10a8:	0000                	unimp
    10aa:	0301                	addi	t1,t1,0
    10ac:	0905                	addi	s2,s2,1
    10ae:	0004                	0x4
    10b0:	0301                	addi	t1,t1,0
    10b2:	0901                	addi	s2,s2,0
    10b4:	0004                	0x4
    10b6:	0301                	addi	t1,t1,0
    10b8:	097a                	slli	s2,s2,0x1e
    10ba:	0004                	0x4
    10bc:	0501                	addi	a0,a0,0
    10be:	0602                	c.slli64	a2
    10c0:	08090103          	lb	sp,128(s2)
    10c4:	0100                	addi	s0,sp,128
    10c6:	1105                	addi	sp,sp,-31
    10c8:	0306                	slli	t1,t1,0x1
    10ca:	0900                	addi	s0,sp,144
    10cc:	0000                	unimp
    10ce:	0501                	addi	a0,a0,0
    10d0:	0602                	c.slli64	a2
    10d2:	0c090103          	lb	sp,192(s2)
    10d6:	0100                	addi	s0,sp,128
    10d8:	1105                	addi	sp,sp,-31
    10da:	0306                	slli	t1,t1,0x1
    10dc:	0900                	addi	s0,sp,144
    10de:	0000                	unimp
    10e0:	0501                	addi	a0,a0,0
    10e2:	0602                	c.slli64	a2
    10e4:	0c090103          	lb	sp,192(s2)
    10e8:	0100                	addi	s0,sp,128
    10ea:	1105                	addi	sp,sp,-31
    10ec:	0306                	slli	t1,t1,0x1
    10ee:	0900                	addi	s0,sp,144
    10f0:	0000                	unimp
    10f2:	0501                	addi	a0,a0,0
    10f4:	0602                	c.slli64	a2
    10f6:	0c090103          	lb	sp,192(s2)
    10fa:	0100                	addi	s0,sp,128
    10fc:	1105                	addi	sp,sp,-31
    10fe:	0306                	slli	t1,t1,0x1
    1100:	0900                	addi	s0,sp,144
    1102:	0000                	unimp
    1104:	0501                	addi	a0,a0,0
    1106:	0602                	c.slli64	a2
    1108:	0c090103          	lb	sp,192(s2)
    110c:	0100                	addi	s0,sp,128
    110e:	1105                	addi	sp,sp,-31
    1110:	0306                	slli	t1,t1,0x1
    1112:	0900                	addi	s0,sp,144
    1114:	0000                	unimp
    1116:	0501                	addi	a0,a0,0
    1118:	0602                	c.slli64	a2
    111a:	0c090103          	lb	sp,192(s2)
    111e:	0100                	addi	s0,sp,128
    1120:	1105                	addi	sp,sp,-31
    1122:	0306                	slli	t1,t1,0x1
    1124:	0900                	addi	s0,sp,144
    1126:	0000                	unimp
    1128:	0501                	addi	a0,a0,0
    112a:	0602                	c.slli64	a2
    112c:	0c090103          	lb	sp,192(s2)
    1130:	0100                	addi	s0,sp,128
    1132:	1105                	addi	sp,sp,-31
    1134:	0306                	slli	t1,t1,0x1
    1136:	0900                	addi	s0,sp,144
    1138:	0000                	unimp
    113a:	0301                	addi	t1,t1,0
    113c:	0901                	addi	s2,s2,0
    113e:	0008                	0x8
    1140:	0301                	addi	t1,t1,0
    1142:	0901                	addi	s2,s2,0
    1144:	0004                	0x4
    1146:	0301                	addi	t1,t1,0
    1148:	097e                	slli	s2,s2,0x1f
    114a:	0004                	0x4
    114c:	0501                	addi	a0,a0,0
    114e:	0602                	c.slli64	a2
    1150:	08090103          	lb	sp,128(s2)
    1154:	0100                	addi	s0,sp,128
    1156:	1105                	addi	sp,sp,-31
    1158:	0306                	slli	t1,t1,0x1
    115a:	0900                	addi	s0,sp,144
    115c:	0000                	unimp
    115e:	0301                	addi	t1,t1,0
    1160:	0902                	c.slli64	s2
    1162:	0004                	0x4
    1164:	0301                	addi	t1,t1,0
    1166:	0901                	addi	s2,s2,0
    1168:	0004                	0x4
    116a:	0301                	addi	t1,t1,0
    116c:	097d                	addi	s2,s2,31
    116e:	0004                	0x4
    1170:	0501                	addi	a0,a0,0
    1172:	0602                	c.slli64	a2
    1174:	08090103          	lb	sp,128(s2)
    1178:	0100                	addi	s0,sp,128
    117a:	1105                	addi	sp,sp,-31
    117c:	0306                	slli	t1,t1,0x1
    117e:	0900                	addi	s0,sp,144
    1180:	0000                	unimp
    1182:	0501                	addi	a0,a0,0
    1184:	0602                	c.slli64	a2
    1186:	0c090103          	lb	sp,192(s2)
    118a:	0100                	addi	s0,sp,128
    118c:	1105                	addi	sp,sp,-31
    118e:	0306                	slli	t1,t1,0x1
    1190:	0900                	addi	s0,sp,144
    1192:	0000                	unimp
    1194:	0501                	addi	a0,a0,0
    1196:	0602                	c.slli64	a2
    1198:	0c090103          	lb	sp,192(s2)
    119c:	0100                	addi	s0,sp,128
    119e:	1105                	addi	sp,sp,-31
    11a0:	0306                	slli	t1,t1,0x1
    11a2:	0900                	addi	s0,sp,144
    11a4:	0000                	unimp
    11a6:	0501                	addi	a0,a0,0
    11a8:	0301                	addi	t1,t1,0
    11aa:	0901                	addi	s2,s2,0
    11ac:	000c                	0xc
    11ae:	0601                	addi	a2,a2,0
    11b0:	04090503          	lb	a0,64(s2)
    11b4:	0100                	addi	s0,sp,128
    11b6:	0305                	addi	t1,t1,1
    11b8:	00090103          	lb	sp,0(s2)
    11bc:	0100                	addi	s0,sp,128
    11be:	00090103          	lb	sp,0(s2)
    11c2:	0100                	addi	s0,sp,128
    11c4:	1105                	addi	sp,sp,-31
    11c6:	00090003          	lb	zero,0(s2)
    11ca:	0100                	addi	s0,sp,128
    11cc:	1305                	addi	t1,t1,-31
    11ce:	00090203          	lb	tp,0(s2)
    11d2:	0100                	addi	s0,sp,128
    11d4:	0705                	addi	a4,a4,1
    11d6:	00090203          	lb	tp,0(s2)
    11da:	0100                	addi	s0,sp,128
    11dc:	1805                	addi	a6,a6,-31
    11de:	0306                	slli	t1,t1,0x1
    11e0:	0900                	addi	s0,sp,144
    11e2:	0000                	unimp
    11e4:	0501                	addi	a0,a0,0
    11e6:	0316                	slli	t1,t1,0x5
    11e8:	0900                	addi	s0,sp,144
    11ea:	005c                	addi	a5,sp,4
    11ec:	0501                	addi	a0,a0,0
    11ee:	0318                	addi	a4,sp,384
    11f0:	0900                	addi	s0,sp,144
    11f2:	0028                	addi	a0,sp,8
    11f4:	0501                	addi	a0,a0,0
    11f6:	0316                	slli	t1,t1,0x5
    11f8:	0900                	addi	s0,sp,144
    11fa:	0004                	0x4
    11fc:	0501                	addi	a0,a0,0
    11fe:	0618                	addi	a4,sp,768
    1200:	18097e03          	0x18097e03
    1204:	0100                	addi	s0,sp,128
    1206:	1305                	addi	t1,t1,-31
    1208:	00090003          	lb	zero,0(s2)
    120c:	0100                	addi	s0,sp,128
    120e:	0705                	addi	a4,a4,1
    1210:	00090203          	lb	tp,0(s2)
    1214:	0100                	addi	s0,sp,128
    1216:	1605                	addi	a2,a2,-31
    1218:	0306                	slli	t1,t1,0x1
    121a:	0900                	addi	s0,sp,144
    121c:	0000                	unimp
    121e:	0501                	addi	a0,a0,0
    1220:	0618                	addi	a4,sp,768
    1222:	04097e03          	0x4097e03
    1226:	0100                	addi	s0,sp,128
    1228:	1305                	addi	t1,t1,-31
    122a:	00090003          	lb	zero,0(s2)
    122e:	0100                	addi	s0,sp,128
    1230:	0705                	addi	a4,a4,1
    1232:	00090203          	lb	tp,0(s2)
    1236:	0100                	addi	s0,sp,128
    1238:	1605                	addi	a2,a2,-31
    123a:	0306                	slli	t1,t1,0x1
    123c:	0900                	addi	s0,sp,144
    123e:	0000                	unimp
    1240:	0501                	addi	a0,a0,0
    1242:	0618                	addi	a4,sp,768
    1244:	04097e03          	0x4097e03
    1248:	0100                	addi	s0,sp,128
    124a:	1305                	addi	t1,t1,-31
    124c:	00090003          	lb	zero,0(s2)
    1250:	0100                	addi	s0,sp,128
    1252:	0705                	addi	a4,a4,1
    1254:	00090203          	lb	tp,0(s2)
    1258:	0100                	addi	s0,sp,128
    125a:	1605                	addi	a2,a2,-31
    125c:	0306                	slli	t1,t1,0x1
    125e:	0900                	addi	s0,sp,144
    1260:	0000                	unimp
    1262:	0501                	addi	a0,a0,0
    1264:	0618                	addi	a4,sp,768
    1266:	04097e03          	0x4097e03
    126a:	0100                	addi	s0,sp,128
    126c:	1305                	addi	t1,t1,-31
    126e:	00090003          	lb	zero,0(s2)
    1272:	0100                	addi	s0,sp,128
    1274:	1605                	addi	a2,a2,-31
    1276:	00097e03          	0x97e03
    127a:	0100                	addi	s0,sp,128
    127c:	1105                	addi	sp,sp,-31
    127e:	00090003          	lb	zero,0(s2)
    1282:	0100                	addi	s0,sp,128
    1284:	1305                	addi	t1,t1,-31
    1286:	00090203          	lb	tp,0(s2)
    128a:	0100                	addi	s0,sp,128
    128c:	0705                	addi	a4,a4,1
    128e:	00090203          	lb	tp,0(s2)
    1292:	0100                	addi	s0,sp,128
    1294:	1605                	addi	a2,a2,-31
    1296:	0306                	slli	t1,t1,0x1
    1298:	0900                	addi	s0,sp,144
    129a:	0000                	unimp
    129c:	0501                	addi	a0,a0,0
    129e:	0618                	addi	a4,sp,768
    12a0:	04097e03          	0x4097e03
    12a4:	0100                	addi	s0,sp,128
    12a6:	1305                	addi	t1,t1,-31
    12a8:	00090003          	lb	zero,0(s2)
    12ac:	0100                	addi	s0,sp,128
    12ae:	0705                	addi	a4,a4,1
    12b0:	00090203          	lb	tp,0(s2)
    12b4:	0100                	addi	s0,sp,128
    12b6:	1605                	addi	a2,a2,-31
    12b8:	0306                	slli	t1,t1,0x1
    12ba:	0900                	addi	s0,sp,144
    12bc:	0000                	unimp
    12be:	0501                	addi	a0,a0,0
    12c0:	0618                	addi	a4,sp,768
    12c2:	04097e03          	0x4097e03
    12c6:	0100                	addi	s0,sp,128
    12c8:	1305                	addi	t1,t1,-31
    12ca:	00090003          	lb	zero,0(s2)
    12ce:	0100                	addi	s0,sp,128
    12d0:	0705                	addi	a4,a4,1
    12d2:	00090203          	lb	tp,0(s2)
    12d6:	0100                	addi	s0,sp,128
    12d8:	1805                	addi	a6,a6,-31
    12da:	00097e03          	0x97e03
    12de:	0100                	addi	s0,sp,128
    12e0:	1305                	addi	t1,t1,-31
    12e2:	00090003          	lb	zero,0(s2)
    12e6:	0100                	addi	s0,sp,128
    12e8:	0705                	addi	a4,a4,1
    12ea:	00090203          	lb	tp,0(s2)
    12ee:	0100                	addi	s0,sp,128
    12f0:	1805                	addi	a6,a6,-31
    12f2:	00097e03          	0x97e03
    12f6:	0100                	addi	s0,sp,128
    12f8:	1305                	addi	t1,t1,-31
    12fa:	00090003          	lb	zero,0(s2)
    12fe:	0100                	addi	s0,sp,128
    1300:	1605                	addi	a2,a2,-31
    1302:	00097e03          	0x97e03
    1306:	0100                	addi	s0,sp,128
    1308:	1105                	addi	sp,sp,-31
    130a:	00090003          	lb	zero,0(s2)
    130e:	0100                	addi	s0,sp,128
    1310:	1305                	addi	t1,t1,-31
    1312:	00090203          	lb	tp,0(s2)
    1316:	0100                	addi	s0,sp,128
    1318:	0705                	addi	a4,a4,1
    131a:	00090203          	lb	tp,0(s2)
    131e:	0100                	addi	s0,sp,128
    1320:	1805                	addi	a6,a6,-31
    1322:	00097e03          	0x97e03
    1326:	0100                	addi	s0,sp,128
    1328:	1305                	addi	t1,t1,-31
    132a:	00090003          	lb	zero,0(s2)
    132e:	0100                	addi	s0,sp,128
    1330:	0705                	addi	a4,a4,1
    1332:	00090203          	lb	tp,0(s2)
    1336:	0100                	addi	s0,sp,128
    1338:	1805                	addi	a6,a6,-31
    133a:	00097e03          	0x97e03
    133e:	0100                	addi	s0,sp,128
    1340:	1305                	addi	t1,t1,-31
    1342:	00090003          	lb	zero,0(s2)
    1346:	0100                	addi	s0,sp,128
    1348:	0705                	addi	a4,a4,1
    134a:	00090203          	lb	tp,0(s2)
    134e:	0100                	addi	s0,sp,128
    1350:	1605                	addi	a2,a2,-31
    1352:	0306                	slli	t1,t1,0x1
    1354:	0900                	addi	s0,sp,144
    1356:	0000                	unimp
    1358:	0501                	addi	a0,a0,0
    135a:	0618                	addi	a4,sp,768
    135c:	04097e03          	0x4097e03
    1360:	0100                	addi	s0,sp,128
    1362:	1305                	addi	t1,t1,-31
    1364:	00090003          	lb	zero,0(s2)
    1368:	0100                	addi	s0,sp,128
    136a:	0705                	addi	a4,a4,1
    136c:	00090203          	lb	tp,0(s2)
    1370:	0100                	addi	s0,sp,128
    1372:	1805                	addi	a6,a6,-31
    1374:	0306                	slli	t1,t1,0x1
    1376:	0900                	addi	s0,sp,144
    1378:	0000                	unimp
    137a:	0501                	addi	a0,a0,0
    137c:	0316                	slli	t1,t1,0x5
    137e:	0900                	addi	s0,sp,144
    1380:	0028                	addi	a0,sp,8
    1382:	0501                	addi	a0,a0,0
    1384:	0618                	addi	a4,sp,768
    1386:	18097e03          	0x18097e03
    138a:	0100                	addi	s0,sp,128
    138c:	1305                	addi	t1,t1,-31
    138e:	00090003          	lb	zero,0(s2)
    1392:	0100                	addi	s0,sp,128
    1394:	1605                	addi	a2,a2,-31
    1396:	00097e03          	0x97e03
    139a:	0100                	addi	s0,sp,128
    139c:	1105                	addi	sp,sp,-31
    139e:	00090003          	lb	zero,0(s2)
    13a2:	0100                	addi	s0,sp,128
    13a4:	1305                	addi	t1,t1,-31
    13a6:	00090203          	lb	tp,0(s2)
    13aa:	0100                	addi	s0,sp,128
    13ac:	0705                	addi	a4,a4,1
    13ae:	00090203          	lb	tp,0(s2)
    13b2:	0100                	addi	s0,sp,128
    13b4:	1605                	addi	a2,a2,-31
    13b6:	0306                	slli	t1,t1,0x1
    13b8:	0900                	addi	s0,sp,144
    13ba:	0000                	unimp
    13bc:	0501                	addi	a0,a0,0
    13be:	0618                	addi	a4,sp,768
    13c0:	04097e03          	0x4097e03
    13c4:	0100                	addi	s0,sp,128
    13c6:	1305                	addi	t1,t1,-31
    13c8:	00090003          	lb	zero,0(s2)
    13cc:	0100                	addi	s0,sp,128
    13ce:	0705                	addi	a4,a4,1
    13d0:	00090203          	lb	tp,0(s2)
    13d4:	0100                	addi	s0,sp,128
    13d6:	1605                	addi	a2,a2,-31
    13d8:	0306                	slli	t1,t1,0x1
    13da:	0900                	addi	s0,sp,144
    13dc:	0000                	unimp
    13de:	0501                	addi	a0,a0,0
    13e0:	0618                	addi	a4,sp,768
    13e2:	04097e03          	0x4097e03
    13e6:	0100                	addi	s0,sp,128
    13e8:	1305                	addi	t1,t1,-31
    13ea:	00090003          	lb	zero,0(s2)
    13ee:	0100                	addi	s0,sp,128
    13f0:	0705                	addi	a4,a4,1
    13f2:	00090203          	lb	tp,0(s2)
    13f6:	0100                	addi	s0,sp,128
    13f8:	1605                	addi	a2,a2,-31
    13fa:	0306                	slli	t1,t1,0x1
    13fc:	0900                	addi	s0,sp,144
    13fe:	0000                	unimp
    1400:	0501                	addi	a0,a0,0
    1402:	0618                	addi	a4,sp,768
    1404:	04097e03          	0x4097e03
    1408:	0100                	addi	s0,sp,128
    140a:	1305                	addi	t1,t1,-31
    140c:	00090003          	lb	zero,0(s2)
    1410:	0100                	addi	s0,sp,128
    1412:	0705                	addi	a4,a4,1
    1414:	00090203          	lb	tp,0(s2)
    1418:	0100                	addi	s0,sp,128
    141a:	1605                	addi	a2,a2,-31
    141c:	0306                	slli	t1,t1,0x1
    141e:	0900                	addi	s0,sp,144
    1420:	0000                	unimp
    1422:	0501                	addi	a0,a0,0
    1424:	0618                	addi	a4,sp,768
    1426:	04097e03          	0x4097e03
    142a:	0100                	addi	s0,sp,128
    142c:	1305                	addi	t1,t1,-31
    142e:	00090003          	lb	zero,0(s2)
    1432:	0100                	addi	s0,sp,128
    1434:	1605                	addi	a2,a2,-31
    1436:	00097e03          	0x97e03
    143a:	0100                	addi	s0,sp,128
    143c:	1105                	addi	sp,sp,-31
    143e:	00090003          	lb	zero,0(s2)
    1442:	0100                	addi	s0,sp,128
    1444:	0105                	addi	sp,sp,1
    1446:	0306                	slli	t1,t1,0x1
    1448:	00000907          	0x907
    144c:	0601                	addi	a2,a2,0
    144e:	04090603          	lb	a2,64(s2)
    1452:	0100                	addi	s0,sp,128
    1454:	0305                	addi	t1,t1,1
    1456:	00090103          	lb	sp,0(s2)
    145a:	0100                	addi	s0,sp,128
    145c:	00090303          	lb	t1,0(s2)
    1460:	0100                	addi	s0,sp,128
    1462:	1205                	addi	tp,tp,-31
    1464:	0306                	slli	t1,t1,0x1
    1466:	0900                	addi	s0,sp,144
    1468:	0000                	unimp
    146a:	0501                	addi	a0,a0,0
    146c:	01030603          	lb	a2,16(t1)
    1470:	0409                	addi	s0,s0,2
    1472:	0100                	addi	s0,sp,128
    1474:	1205                	addi	tp,tp,-31
    1476:	0306                	slli	t1,t1,0x1
    1478:	0900                	addi	s0,sp,144
    147a:	0000                	unimp
    147c:	0301                	addi	t1,t1,0
    147e:	0901                	addi	s2,s2,0
    1480:	0004                	0x4
    1482:	0301                	addi	t1,t1,0
    1484:	0901                	addi	s2,s2,0
    1486:	0004                	0x4
    1488:	0301                	addi	t1,t1,0
    148a:	0904                	addi	s1,sp,144
    148c:	0004                	0x4
    148e:	0301                	addi	t1,t1,0
    1490:	0901                	addi	s2,s2,0
    1492:	0004                	0x4
    1494:	0301                	addi	t1,t1,0
    1496:	00040903          	lb	s2,0(s0)
    149a:	0301                	addi	t1,t1,0
    149c:	0901                	addi	s2,s2,0
    149e:	0004                	0x4
    14a0:	0301                	addi	t1,t1,0
    14a2:	0904                	addi	s1,sp,144
    14a4:	0004                	0x4
    14a6:	0301                	addi	t1,t1,0
    14a8:	0901                	addi	s2,s2,0
    14aa:	0004                	0x4
    14ac:	0301                	addi	t1,t1,0
    14ae:	0901                	addi	s2,s2,0
    14b0:	0004                	0x4
    14b2:	0301                	addi	t1,t1,0
    14b4:	0901                	addi	s2,s2,0
    14b6:	0004                	0x4
    14b8:	0301                	addi	t1,t1,0
    14ba:	096e                	slli	s2,s2,0x1b
    14bc:	0004                	0x4
    14be:	0501                	addi	a0,a0,0
    14c0:	01030603          	lb	a2,16(t1)
    14c4:	0409                	addi	s0,s0,2
    14c6:	0100                	addi	s0,sp,128
    14c8:	1205                	addi	tp,tp,-31
    14ca:	0306                	slli	t1,t1,0x1
    14cc:	0900                	addi	s0,sp,144
    14ce:	0000                	unimp
    14d0:	0501                	addi	a0,a0,0
    14d2:	01030603          	lb	a2,16(t1)
    14d6:	0409                	addi	s0,s0,2
    14d8:	0100                	addi	s0,sp,128
    14da:	1205                	addi	tp,tp,-31
    14dc:	0306                	slli	t1,t1,0x1
    14de:	0900                	addi	s0,sp,144
    14e0:	0000                	unimp
    14e2:	0501                	addi	a0,a0,0
    14e4:	01030603          	lb	a2,16(t1)
    14e8:	0409                	addi	s0,s0,2
    14ea:	0100                	addi	s0,sp,128
    14ec:	1205                	addi	tp,tp,-31
    14ee:	0306                	slli	t1,t1,0x1
    14f0:	0900                	addi	s0,sp,144
    14f2:	0000                	unimp
    14f4:	0501                	addi	a0,a0,0
    14f6:	03030603          	lb	a2,48(t1)
    14fa:	0409                	addi	s0,s0,2
    14fc:	0100                	addi	s0,sp,128
    14fe:	00090103          	lb	sp,0(s2)
    1502:	0100                	addi	s0,sp,128
    1504:	1205                	addi	tp,tp,-31
    1506:	0306                	slli	t1,t1,0x1
    1508:	0900                	addi	s0,sp,144
    150a:	0000                	unimp
    150c:	0501                	addi	a0,a0,0
    150e:	01030603          	lb	a2,16(t1)
    1512:	0409                	addi	s0,s0,2
    1514:	0100                	addi	s0,sp,128
    1516:	1205                	addi	tp,tp,-31
    1518:	0306                	slli	t1,t1,0x1
    151a:	0900                	addi	s0,sp,144
    151c:	0000                	unimp
    151e:	0501                	addi	a0,a0,0
    1520:	02030603          	lb	a2,32(t1)
    1524:	0409                	addi	s0,s0,2
    1526:	0100                	addi	s0,sp,128
    1528:	00090103          	lb	sp,0(s2)
    152c:	0100                	addi	s0,sp,128
    152e:	1205                	addi	tp,tp,-31
    1530:	0306                	slli	t1,t1,0x1
    1532:	0900                	addi	s0,sp,144
    1534:	0000                	unimp
    1536:	0501                	addi	a0,a0,0
    1538:	01030603          	lb	a2,16(t1)
    153c:	0409                	addi	s0,s0,2
    153e:	0100                	addi	s0,sp,128
    1540:	1205                	addi	tp,tp,-31
    1542:	0306                	slli	t1,t1,0x1
    1544:	0900                	addi	s0,sp,144
    1546:	0000                	unimp
    1548:	0501                	addi	a0,a0,0
    154a:	03030603          	lb	a2,48(t1)
    154e:	0409                	addi	s0,s0,2
    1550:	0100                	addi	s0,sp,128
    1552:	00090103          	lb	sp,0(s2)
    1556:	0100                	addi	s0,sp,128
    1558:	1205                	addi	tp,tp,-31
    155a:	0306                	slli	t1,t1,0x1
    155c:	0900                	addi	s0,sp,144
    155e:	0000                	unimp
    1560:	0501                	addi	a0,a0,0
    1562:	01030603          	lb	a2,16(t1)
    1566:	0409                	addi	s0,s0,2
    1568:	0100                	addi	s0,sp,128
    156a:	1205                	addi	tp,tp,-31
    156c:	0306                	slli	t1,t1,0x1
    156e:	0900                	addi	s0,sp,144
    1570:	0000                	unimp
    1572:	0501                	addi	a0,a0,0
    1574:	01030603          	lb	a2,16(t1)
    1578:	0409                	addi	s0,s0,2
    157a:	0100                	addi	s0,sp,128
    157c:	1205                	addi	tp,tp,-31
    157e:	0306                	slli	t1,t1,0x1
    1580:	0900                	addi	s0,sp,144
    1582:	0000                	unimp
    1584:	0501                	addi	a0,a0,0
    1586:	01030603          	lb	a2,16(t1)
    158a:	0409                	addi	s0,s0,2
    158c:	0100                	addi	s0,sp,128
    158e:	1205                	addi	tp,tp,-31
    1590:	0306                	slli	t1,t1,0x1
    1592:	0900                	addi	s0,sp,144
    1594:	0000                	unimp
    1596:	0501                	addi	a0,a0,0
    1598:	0301                	addi	t1,t1,0
    159a:	0901                	addi	s2,s2,0
    159c:	0004                	0x4
    159e:	0601                	addi	a2,a2,0
    15a0:	04090303          	lb	t1,64(s2)
    15a4:	0100                	addi	s0,sp,128
    15a6:	0305                	addi	t1,t1,1
    15a8:	00090103          	lb	sp,0(s2)
    15ac:	0100                	addi	s0,sp,128
    15ae:	1205                	addi	tp,tp,-31
    15b0:	0306                	slli	t1,t1,0x1
    15b2:	0900                	addi	s0,sp,144
    15b4:	0000                	unimp
    15b6:	0501                	addi	a0,a0,0
    15b8:	030d                	addi	t1,t1,3
    15ba:	0900                	addi	s0,sp,144
    15bc:	0014                	0x14
    15be:	0501                	addi	a0,a0,0
    15c0:	0312                	slli	t1,t1,0x4
    15c2:	0900                	addi	s0,sp,144
    15c4:	0004                	0x4
    15c6:	0501                	addi	a0,a0,0
    15c8:	0301                	addi	t1,t1,0
    15ca:	0901                	addi	s2,s2,0
    15cc:	0004                	0x4
    15ce:	0601                	addi	a2,a2,0
    15d0:	08090403          	lb	s0,128(s2)
    15d4:	0100                	addi	s0,sp,128
    15d6:	0305                	addi	t1,t1,1
    15d8:	00090103          	lb	sp,0(s2)
    15dc:	0100                	addi	s0,sp,128
    15de:	00090103          	lb	sp,0(s2)
    15e2:	0100                	addi	s0,sp,128
    15e4:	00090103          	lb	sp,0(s2)
    15e8:	0100                	addi	s0,sp,128
    15ea:	1105                	addi	sp,sp,-31
    15ec:	00090003          	lb	zero,0(s2)
    15f0:	0100                	addi	s0,sp,128
    15f2:	0505                	addi	a0,a0,1
    15f4:	00090203          	lb	tp,0(s2)
    15f8:	0100                	addi	s0,sp,128
    15fa:	0105                	addi	sp,sp,1
    15fc:	0306                	slli	t1,t1,0x1
    15fe:	0000097b          	0x97b
    1602:	0501                	addi	a0,a0,0
    1604:	0349                	addi	t1,t1,18
    1606:	0906                	slli	s2,s2,0x1
    1608:	0024                	addi	s1,sp,8
    160a:	0501                	addi	a0,a0,0
    160c:	0309                	addi	t1,t1,2
    160e:	097f                	0x97f
    1610:	0004                	0x4
    1612:	0501                	addi	a0,a0,0
    1614:	0605                	addi	a2,a2,1
    1616:	04090103          	lb	sp,64(s2)
    161a:	0100                	addi	s0,sp,128
    161c:	3805                	jal	e4c <_stack_size+0x64c>
    161e:	0306                	slli	t1,t1,0x1
    1620:	0900                	addi	s0,sp,144
    1622:	0000                	unimp
    1624:	0501                	addi	a0,a0,0
    1626:	09000327          	0x9000327
    162a:	0004                	0x4
    162c:	0501                	addi	a0,a0,0
    162e:	0301                	addi	t1,t1,0
    1630:	097a                	slli	s2,s2,0x1e
    1632:	0004                	0x4
    1634:	0501                	addi	a0,a0,0
    1636:	0309                	addi	t1,t1,2
    1638:	0906                	slli	s2,s2,0x1
    163a:	0008                	0x8
    163c:	0501                	addi	a0,a0,0
    163e:	0605                	addi	a2,a2,1
    1640:	08090103          	lb	sp,128(s2)
    1644:	0100                	addi	s0,sp,128
    1646:	2d05                	jal	1c76 <_stack_size+0x1476>
    1648:	00090003          	lb	zero,0(s2)
    164c:	0100                	addi	s0,sp,128
    164e:	3205                	jal	f6e <_stack_size+0x76e>
    1650:	0306                	slli	t1,t1,0x1
    1652:	0900                	addi	s0,sp,144
    1654:	0000                	unimp
    1656:	0501                	addi	a0,a0,0
    1658:	063e                	slli	a2,a2,0xf
    165a:	04090003          	lb	zero,64(s2)
    165e:	0100                	addi	s0,sp,128
    1660:	4d05                	li	s10,1
    1662:	0306                	slli	t1,t1,0x1
    1664:	0900                	addi	s0,sp,144
    1666:	0000                	unimp
    1668:	0501                	addi	a0,a0,0
    166a:	0605                	addi	a2,a2,1
    166c:	0c090103          	lb	sp,192(s2)
    1670:	0100                	addi	s0,sp,128
    1672:	2d05                	jal	1ca2 <_stack_size+0x14a2>
    1674:	00090003          	lb	zero,0(s2)
    1678:	0100                	addi	s0,sp,128
    167a:	3205                	jal	f9a <_stack_size+0x79a>
    167c:	0306                	slli	t1,t1,0x1
    167e:	0900                	addi	s0,sp,144
    1680:	0000                	unimp
    1682:	0501                	addi	a0,a0,0
    1684:	063e                	slli	a2,a2,0xf
    1686:	08090003          	lb	zero,128(s2)
    168a:	0100                	addi	s0,sp,128
    168c:	4d05                	li	s10,1
    168e:	0306                	slli	t1,t1,0x1
    1690:	0900                	addi	s0,sp,144
    1692:	0000                	unimp
    1694:	0501                	addi	a0,a0,0
    1696:	0605                	addi	a2,a2,1
    1698:	0c090103          	lb	sp,192(s2)
    169c:	0100                	addi	s0,sp,128
    169e:	2d05                	jal	1cce <_stack_size+0x14ce>
    16a0:	00090003          	lb	zero,0(s2)
    16a4:	0100                	addi	s0,sp,128
    16a6:	3205                	jal	fc6 <_stack_size+0x7c6>
    16a8:	0306                	slli	t1,t1,0x1
    16aa:	0900                	addi	s0,sp,144
    16ac:	0000                	unimp
    16ae:	0501                	addi	a0,a0,0
    16b0:	063e                	slli	a2,a2,0xf
    16b2:	08090003          	lb	zero,128(s2)
    16b6:	0100                	addi	s0,sp,128
    16b8:	4d05                	li	s10,1
    16ba:	0306                	slli	t1,t1,0x1
    16bc:	0900                	addi	s0,sp,144
    16be:	0000                	unimp
    16c0:	0501                	addi	a0,a0,0
    16c2:	0605                	addi	a2,a2,1
    16c4:	0c090103          	lb	sp,192(s2)
    16c8:	0100                	addi	s0,sp,128
    16ca:	2d05                	jal	1cfa <_stack_size+0x14fa>
    16cc:	00090003          	lb	zero,0(s2)
    16d0:	0100                	addi	s0,sp,128
    16d2:	3205                	jal	ff2 <_stack_size+0x7f2>
    16d4:	0306                	slli	t1,t1,0x1
    16d6:	0900                	addi	s0,sp,144
    16d8:	0000                	unimp
    16da:	0501                	addi	a0,a0,0
    16dc:	063e                	slli	a2,a2,0xf
    16de:	08090003          	lb	zero,128(s2)
    16e2:	0100                	addi	s0,sp,128
    16e4:	0905                	addi	s2,s2,1
    16e6:	0306                	slli	t1,t1,0x1
    16e8:	0000097b          	0x97b
    16ec:	0501                	addi	a0,a0,0
    16ee:	09010327          	0x9010327
    16f2:	0004                	0x4
    16f4:	0501                	addi	a0,a0,0
    16f6:	0338                	addi	a4,sp,392
    16f8:	0900                	addi	s0,sp,144
    16fa:	0004                	0x4
    16fc:	0501                	addi	a0,a0,0
    16fe:	0349                	addi	t1,t1,18
    1700:	0900                	addi	s0,sp,144
    1702:	0004                	0x4
    1704:	0501                	addi	a0,a0,0
    1706:	034d                	addi	t1,t1,19
    1708:	0904                	addi	s1,sp,144
    170a:	0004                	0x4
    170c:	0501                	addi	a0,a0,0
    170e:	0616                	slli	a2,a2,0x5
    1710:	0c097903          	0xc097903
    1714:	0100                	addi	s0,sp,128
    1716:	1105                	addi	sp,sp,-31
    1718:	00090003          	lb	zero,0(s2)
    171c:	0100                	addi	s0,sp,128
    171e:	0505                	addi	a0,a0,1
    1720:	00090203          	lb	tp,0(s2)
    1724:	0100                	addi	s0,sp,128
    1726:	00090103          	lb	sp,0(s2)
    172a:	0100                	addi	s0,sp,128
    172c:	0905                	addi	s2,s2,1
    172e:	0306                	slli	t1,t1,0x1
    1730:	0900                	addi	s0,sp,144
    1732:	0004                	0x4
    1734:	0501                	addi	a0,a0,0
    1736:	0605                	addi	a2,a2,1
    1738:	08090103          	lb	sp,128(s2)
    173c:	0100                	addi	s0,sp,128
    173e:	2d05                	jal	1d6e <_stack_size+0x156e>
    1740:	00090003          	lb	zero,0(s2)
    1744:	0100                	addi	s0,sp,128
    1746:	3205                	jal	1066 <_stack_size+0x866>
    1748:	0306                	slli	t1,t1,0x1
    174a:	0900                	addi	s0,sp,144
    174c:	0000                	unimp
    174e:	0501                	addi	a0,a0,0
    1750:	063e                	slli	a2,a2,0xf
    1752:	04090003          	lb	zero,64(s2)
    1756:	0100                	addi	s0,sp,128
    1758:	4d05                	li	s10,1
    175a:	0306                	slli	t1,t1,0x1
    175c:	0900                	addi	s0,sp,144
    175e:	0000                	unimp
    1760:	0501                	addi	a0,a0,0
    1762:	0605                	addi	a2,a2,1
    1764:	0c090103          	lb	sp,192(s2)
    1768:	0100                	addi	s0,sp,128
    176a:	2d05                	jal	1d9a <_stack_size+0x159a>
    176c:	00090003          	lb	zero,0(s2)
    1770:	0100                	addi	s0,sp,128
    1772:	3205                	jal	1092 <_stack_size+0x892>
    1774:	0306                	slli	t1,t1,0x1
    1776:	0900                	addi	s0,sp,144
    1778:	0000                	unimp
    177a:	0501                	addi	a0,a0,0
    177c:	063e                	slli	a2,a2,0xf
    177e:	08090003          	lb	zero,128(s2)
    1782:	0100                	addi	s0,sp,128
    1784:	4d05                	li	s10,1
    1786:	0306                	slli	t1,t1,0x1
    1788:	0900                	addi	s0,sp,144
    178a:	0000                	unimp
    178c:	0501                	addi	a0,a0,0
    178e:	0605                	addi	a2,a2,1
    1790:	0c090103          	lb	sp,192(s2)
    1794:	0100                	addi	s0,sp,128
    1796:	2d05                	jal	1dc6 <_stack_size+0x15c6>
    1798:	00090003          	lb	zero,0(s2)
    179c:	0100                	addi	s0,sp,128
    179e:	3205                	jal	10be <_stack_size+0x8be>
    17a0:	0306                	slli	t1,t1,0x1
    17a2:	0900                	addi	s0,sp,144
    17a4:	0000                	unimp
    17a6:	0501                	addi	a0,a0,0
    17a8:	063e                	slli	a2,a2,0xf
    17aa:	08090003          	lb	zero,128(s2)
    17ae:	0100                	addi	s0,sp,128
    17b0:	4d05                	li	s10,1
    17b2:	0306                	slli	t1,t1,0x1
    17b4:	0900                	addi	s0,sp,144
    17b6:	0000                	unimp
    17b8:	0501                	addi	a0,a0,0
    17ba:	0605                	addi	a2,a2,1
    17bc:	0c090103          	lb	sp,192(s2)
    17c0:	0100                	addi	s0,sp,128
    17c2:	2d05                	jal	1df2 <_stack_size+0x15f2>
    17c4:	00090003          	lb	zero,0(s2)
    17c8:	0100                	addi	s0,sp,128
    17ca:	3205                	jal	10ea <_stack_size+0x8ea>
    17cc:	0306                	slli	t1,t1,0x1
    17ce:	0900                	addi	s0,sp,144
    17d0:	0000                	unimp
    17d2:	0501                	addi	a0,a0,0
    17d4:	063e                	slli	a2,a2,0xf
    17d6:	08090003          	lb	zero,128(s2)
    17da:	0100                	addi	s0,sp,128
    17dc:	0905                	addi	s2,s2,1
    17de:	0306                	slli	t1,t1,0x1
    17e0:	0000097b          	0x97b
    17e4:	0501                	addi	a0,a0,0
    17e6:	09010327          	0x9010327
    17ea:	0004                	0x4
    17ec:	0501                	addi	a0,a0,0
    17ee:	0338                	addi	a4,sp,392
    17f0:	0900                	addi	s0,sp,144
    17f2:	0004                	0x4
    17f4:	0501                	addi	a0,a0,0
    17f6:	0349                	addi	t1,t1,18
    17f8:	0900                	addi	s0,sp,144
    17fa:	0004                	0x4
    17fc:	0501                	addi	a0,a0,0
    17fe:	034d                	addi	t1,t1,19
    1800:	0904                	addi	s1,sp,144
    1802:	0004                	0x4
    1804:	0501                	addi	a0,a0,0
    1806:	0616                	slli	a2,a2,0x5
    1808:	0c097903          	0xc097903
    180c:	0100                	addi	s0,sp,128
    180e:	1105                	addi	sp,sp,-31
    1810:	00090003          	lb	zero,0(s2)
    1814:	0100                	addi	s0,sp,128
    1816:	0505                	addi	a0,a0,1
    1818:	00090203          	lb	tp,0(s2)
    181c:	0100                	addi	s0,sp,128
    181e:	00090103          	lb	sp,0(s2)
    1822:	0100                	addi	s0,sp,128
    1824:	0905                	addi	s2,s2,1
    1826:	0306                	slli	t1,t1,0x1
    1828:	0900                	addi	s0,sp,144
    182a:	0004                	0x4
    182c:	0501                	addi	a0,a0,0
    182e:	0605                	addi	a2,a2,1
    1830:	08090103          	lb	sp,128(s2)
    1834:	0100                	addi	s0,sp,128
    1836:	2d05                	jal	1e66 <_stack_size+0x1666>
    1838:	00090003          	lb	zero,0(s2)
    183c:	0100                	addi	s0,sp,128
    183e:	3205                	jal	115e <_stack_size+0x95e>
    1840:	0306                	slli	t1,t1,0x1
    1842:	0900                	addi	s0,sp,144
    1844:	0000                	unimp
    1846:	0501                	addi	a0,a0,0
    1848:	063e                	slli	a2,a2,0xf
    184a:	04090003          	lb	zero,64(s2)
    184e:	0100                	addi	s0,sp,128
    1850:	4d05                	li	s10,1
    1852:	0306                	slli	t1,t1,0x1
    1854:	0900                	addi	s0,sp,144
    1856:	0000                	unimp
    1858:	0501                	addi	a0,a0,0
    185a:	0605                	addi	a2,a2,1
    185c:	0c090103          	lb	sp,192(s2)
    1860:	0100                	addi	s0,sp,128
    1862:	2d05                	jal	1e92 <_stack_size+0x1692>
    1864:	00090003          	lb	zero,0(s2)
    1868:	0100                	addi	s0,sp,128
    186a:	3205                	jal	118a <_stack_size+0x98a>
    186c:	0306                	slli	t1,t1,0x1
    186e:	0900                	addi	s0,sp,144
    1870:	0000                	unimp
    1872:	0501                	addi	a0,a0,0
    1874:	063e                	slli	a2,a2,0xf
    1876:	08090003          	lb	zero,128(s2)
    187a:	0100                	addi	s0,sp,128
    187c:	4d05                	li	s10,1
    187e:	0306                	slli	t1,t1,0x1
    1880:	0900                	addi	s0,sp,144
    1882:	0000                	unimp
    1884:	0501                	addi	a0,a0,0
    1886:	0605                	addi	a2,a2,1
    1888:	0c090103          	lb	sp,192(s2)
    188c:	0100                	addi	s0,sp,128
    188e:	2d05                	jal	1ebe <_stack_size+0x16be>
    1890:	00090003          	lb	zero,0(s2)
    1894:	0100                	addi	s0,sp,128
    1896:	3205                	jal	11b6 <_stack_size+0x9b6>
    1898:	0306                	slli	t1,t1,0x1
    189a:	0900                	addi	s0,sp,144
    189c:	0000                	unimp
    189e:	0501                	addi	a0,a0,0
    18a0:	063e                	slli	a2,a2,0xf
    18a2:	08090003          	lb	zero,128(s2)
    18a6:	0100                	addi	s0,sp,128
    18a8:	4d05                	li	s10,1
    18aa:	0306                	slli	t1,t1,0x1
    18ac:	0900                	addi	s0,sp,144
    18ae:	0000                	unimp
    18b0:	0501                	addi	a0,a0,0
    18b2:	0605                	addi	a2,a2,1
    18b4:	0c090103          	lb	sp,192(s2)
    18b8:	0100                	addi	s0,sp,128
    18ba:	2d05                	jal	1eea <_stack_size+0x16ea>
    18bc:	00090003          	lb	zero,0(s2)
    18c0:	0100                	addi	s0,sp,128
    18c2:	3205                	jal	11e2 <_stack_size+0x9e2>
    18c4:	0306                	slli	t1,t1,0x1
    18c6:	0900                	addi	s0,sp,144
    18c8:	0000                	unimp
    18ca:	0501                	addi	a0,a0,0
    18cc:	063e                	slli	a2,a2,0xf
    18ce:	08090003          	lb	zero,128(s2)
    18d2:	0100                	addi	s0,sp,128
    18d4:	0905                	addi	s2,s2,1
    18d6:	0306                	slli	t1,t1,0x1
    18d8:	0000097b          	0x97b
    18dc:	0501                	addi	a0,a0,0
    18de:	09010327          	0x9010327
    18e2:	0004                	0x4
    18e4:	0501                	addi	a0,a0,0
    18e6:	0338                	addi	a4,sp,392
    18e8:	0900                	addi	s0,sp,144
    18ea:	0004                	0x4
    18ec:	0501                	addi	a0,a0,0
    18ee:	0349                	addi	t1,t1,18
    18f0:	0900                	addi	s0,sp,144
    18f2:	0004                	0x4
    18f4:	0501                	addi	a0,a0,0
    18f6:	034d                	addi	t1,t1,19
    18f8:	0904                	addi	s1,sp,144
    18fa:	0004                	0x4
    18fc:	0501                	addi	a0,a0,0
    18fe:	0309                	addi	t1,t1,2
    1900:	097c                	addi	a5,sp,156
    1902:	000c                	0xc
    1904:	0501                	addi	a0,a0,0
    1906:	034d                	addi	t1,t1,19
    1908:	0904                	addi	s1,sp,144
    190a:	0004                	0x4
    190c:	0501                	addi	a0,a0,0
    190e:	0616                	slli	a2,a2,0x5
    1910:	04097903          	0x4097903
    1914:	0100                	addi	s0,sp,128
    1916:	1105                	addi	sp,sp,-31
    1918:	00090003          	lb	zero,0(s2)
    191c:	0100                	addi	s0,sp,128
    191e:	0505                	addi	a0,a0,1
    1920:	00090203          	lb	tp,0(s2)
    1924:	0100                	addi	s0,sp,128
    1926:	00090103          	lb	sp,0(s2)
    192a:	0100                	addi	s0,sp,128
    192c:	0905                	addi	s2,s2,1
    192e:	0306                	slli	t1,t1,0x1
    1930:	0900                	addi	s0,sp,144
    1932:	0000                	unimp
    1934:	0501                	addi	a0,a0,0
    1936:	0605                	addi	a2,a2,1
    1938:	04090103          	lb	sp,64(s2)
    193c:	0100                	addi	s0,sp,128
    193e:	2d05                	jal	1f6e <_stack_size+0x176e>
    1940:	00090003          	lb	zero,0(s2)
    1944:	0100                	addi	s0,sp,128
    1946:	3205                	jal	1266 <_stack_size+0xa66>
    1948:	0306                	slli	t1,t1,0x1
    194a:	0900                	addi	s0,sp,144
    194c:	0000                	unimp
    194e:	0501                	addi	a0,a0,0
    1950:	063e                	slli	a2,a2,0xf
    1952:	04090003          	lb	zero,64(s2)
    1956:	0100                	addi	s0,sp,128
    1958:	4d05                	li	s10,1
    195a:	0306                	slli	t1,t1,0x1
    195c:	0900                	addi	s0,sp,144
    195e:	0000                	unimp
    1960:	0501                	addi	a0,a0,0
    1962:	0605                	addi	a2,a2,1
    1964:	0c090103          	lb	sp,192(s2)
    1968:	0100                	addi	s0,sp,128
    196a:	2d05                	jal	1f9a <_stack_size+0x179a>
    196c:	00090003          	lb	zero,0(s2)
    1970:	0100                	addi	s0,sp,128
    1972:	3205                	jal	1292 <_stack_size+0xa92>
    1974:	0306                	slli	t1,t1,0x1
    1976:	0900                	addi	s0,sp,144
    1978:	0000                	unimp
    197a:	0501                	addi	a0,a0,0
    197c:	063e                	slli	a2,a2,0xf
    197e:	08090003          	lb	zero,128(s2)
    1982:	0100                	addi	s0,sp,128
    1984:	4d05                	li	s10,1
    1986:	0306                	slli	t1,t1,0x1
    1988:	0900                	addi	s0,sp,144
    198a:	0000                	unimp
    198c:	0501                	addi	a0,a0,0
    198e:	0605                	addi	a2,a2,1
    1990:	0c090103          	lb	sp,192(s2)
    1994:	0100                	addi	s0,sp,128
    1996:	2d05                	jal	1fc6 <_stack_size+0x17c6>
    1998:	00090003          	lb	zero,0(s2)
    199c:	0100                	addi	s0,sp,128
    199e:	3205                	jal	12be <_stack_size+0xabe>
    19a0:	0306                	slli	t1,t1,0x1
    19a2:	0900                	addi	s0,sp,144
    19a4:	0000                	unimp
    19a6:	0501                	addi	a0,a0,0
    19a8:	063e                	slli	a2,a2,0xf
    19aa:	08090003          	lb	zero,128(s2)
    19ae:	0100                	addi	s0,sp,128
    19b0:	4d05                	li	s10,1
    19b2:	0306                	slli	t1,t1,0x1
    19b4:	0900                	addi	s0,sp,144
    19b6:	0000                	unimp
    19b8:	0501                	addi	a0,a0,0
    19ba:	0605                	addi	a2,a2,1
    19bc:	0c090103          	lb	sp,192(s2)
    19c0:	0100                	addi	s0,sp,128
    19c2:	2d05                	jal	1ff2 <_stack_size+0x17f2>
    19c4:	00090003          	lb	zero,0(s2)
    19c8:	0100                	addi	s0,sp,128
    19ca:	3205                	jal	12ea <_stack_size+0xaea>
    19cc:	0306                	slli	t1,t1,0x1
    19ce:	0900                	addi	s0,sp,144
    19d0:	0000                	unimp
    19d2:	0501                	addi	a0,a0,0
    19d4:	063e                	slli	a2,a2,0xf
    19d6:	08090003          	lb	zero,128(s2)
    19da:	0100                	addi	s0,sp,128
    19dc:	4d05                	li	s10,1
    19de:	0306                	slli	t1,t1,0x1
    19e0:	0900                	addi	s0,sp,144
    19e2:	0000                	unimp
    19e4:	0501                	addi	a0,a0,0
    19e6:	0616                	slli	a2,a2,0x5
    19e8:	0c097903          	0xc097903
    19ec:	0100                	addi	s0,sp,128
    19ee:	1105                	addi	sp,sp,-31
    19f0:	00090003          	lb	zero,0(s2)
    19f4:	0100                	addi	s0,sp,128
    19f6:	0105                	addi	sp,sp,1
    19f8:	0306                	slli	t1,t1,0x1
    19fa:	0909                	addi	s2,s2,2
    19fc:	0000                	unimp
    19fe:	0601                	addi	a2,a2,0
    1a00:	28091e03          	lh	t3,640(s2)
    1a04:	0100                	addi	s0,sp,128
    1a06:	0305                	addi	t1,t1,1
    1a08:	00090103          	lb	sp,0(s2)
    1a0c:	0100                	addi	s0,sp,128
    1a0e:	00090103          	lb	sp,0(s2)
    1a12:	0100                	addi	s0,sp,128
    1a14:	00090103          	lb	sp,0(s2)
    1a18:	0100                	addi	s0,sp,128
    1a1a:	1105                	addi	sp,sp,-31
    1a1c:	00090003          	lb	zero,0(s2)
    1a20:	0100                	addi	s0,sp,128
    1a22:	0105                	addi	sp,sp,1
    1a24:	0306                	slli	t1,t1,0x1
    1a26:	097d                	addi	s2,s2,31
    1a28:	0000                	unimp
    1a2a:	0301                	addi	t1,t1,0
    1a2c:	0900                	addi	s0,sp,144
    1a2e:	003c                	addi	a5,sp,8
    1a30:	0501                	addi	a0,a0,0
    1a32:	0005                	c.nop	1
    1a34:	0402                	c.slli64	s0
    1a36:	05030603          	lb	a2,80(t1)
    1a3a:	0809                	addi	a6,a6,2
    1a3c:	0100                	addi	s0,sp,128
    1a3e:	0705                	addi	a4,a4,1
    1a40:	0200                	addi	s0,sp,256
    1a42:	0304                	addi	s1,sp,384
    1a44:	0306                	slli	t1,t1,0x1
    1a46:	0900                	addi	s0,sp,144
    1a48:	0000                	unimp
    1a4a:	0501                	addi	a0,a0,0
    1a4c:	0005                	c.nop	1
    1a4e:	0402                	c.slli64	s0
    1a50:	01030603          	lb	a2,16(t1)
    1a54:	0409                	addi	s0,s0,2
    1a56:	0100                	addi	s0,sp,128
    1a58:	0705                	addi	a4,a4,1
    1a5a:	0200                	addi	s0,sp,256
    1a5c:	0304                	addi	s1,sp,384
    1a5e:	0306                	slli	t1,t1,0x1
    1a60:	0900                	addi	s0,sp,144
    1a62:	0000                	unimp
    1a64:	0501                	addi	a0,a0,0
    1a66:	0005                	c.nop	1
    1a68:	0402                	c.slli64	s0
    1a6a:	01030603          	lb	a2,16(t1)
    1a6e:	0409                	addi	s0,s0,2
    1a70:	0100                	addi	s0,sp,128
    1a72:	0705                	addi	a4,a4,1
    1a74:	0200                	addi	s0,sp,256
    1a76:	0304                	addi	s1,sp,384
    1a78:	0306                	slli	t1,t1,0x1
    1a7a:	0900                	addi	s0,sp,144
    1a7c:	0000                	unimp
    1a7e:	0501                	addi	a0,a0,0
    1a80:	0005                	c.nop	1
    1a82:	0402                	c.slli64	s0
    1a84:	01030603          	lb	a2,16(t1)
    1a88:	0409                	addi	s0,s0,2
    1a8a:	0100                	addi	s0,sp,128
    1a8c:	1605                	addi	a2,a2,-31
    1a8e:	0200                	addi	s0,sp,256
    1a90:	0304                	addi	s1,sp,384
    1a92:	0306                	slli	t1,t1,0x1
    1a94:	0902                	c.slli64	s2
    1a96:	0000                	unimp
    1a98:	0501                	addi	a0,a0,0
    1a9a:	002a                	c.slli	zero,0xa
    1a9c:	0402                	c.slli64	s0
    1a9e:	09000303          	lb	t1,144(zero) # 90 <_heap_size+0x90>
    1aa2:	001c                	0x1c
    1aa4:	0501                	addi	a0,a0,0
    1aa6:	0016                	c.slli	zero,0x5
    1aa8:	0402                	c.slli64	s0
    1aaa:	09000303          	lb	t1,144(zero) # 90 <_heap_size+0x90>
    1aae:	0004                	0x4
    1ab0:	0501                	addi	a0,a0,0
    1ab2:	002a                	c.slli	zero,0xa
    1ab4:	0402                	c.slli64	s0
    1ab6:	09000303          	lb	t1,144(zero) # 90 <_heap_size+0x90>
    1aba:	0004                	0x4
    1abc:	0501                	addi	a0,a0,0
    1abe:	003e                	c.slli	zero,0xf
    1ac0:	0402                	c.slli64	s0
    1ac2:	09000303          	lb	t1,144(zero) # 90 <_heap_size+0x90>
    1ac6:	0018                	0x18
    1ac8:	0501                	addi	a0,a0,0
    1aca:	002a                	c.slli	zero,0xa
    1acc:	0402                	c.slli64	s0
    1ace:	09000303          	lb	t1,144(zero) # 90 <_heap_size+0x90>
    1ad2:	0004                	0x4
    1ad4:	0501                	addi	a0,a0,0
    1ad6:	04020007          	0x4020007
    1ada:	097e0303          	lb	t1,151(t3)
    1ade:	0004                	0x4
    1ae0:	0501                	addi	a0,a0,0
    1ae2:	0005                	c.nop	1
    1ae4:	0402                	c.slli64	s0
    1ae6:	02030603          	lb	a2,32(t1)
    1aea:	0409                	addi	s0,s0,2
    1aec:	0100                	addi	s0,sp,128
    1aee:	3e05                	jal	161e <_stack_size+0xe1e>
    1af0:	0200                	addi	s0,sp,256
    1af2:	0304                	addi	s1,sp,384
    1af4:	0306                	slli	t1,t1,0x1
    1af6:	0900                	addi	s0,sp,144
    1af8:	0000                	unimp
    1afa:	0501                	addi	a0,a0,0
    1afc:	0052                	c.slli	zero,0x14
    1afe:	0402                	c.slli64	s0
    1b00:	09000303          	lb	t1,144(zero) # 90 <_heap_size+0x90>
    1b04:	0018                	0x18
    1b06:	0501                	addi	a0,a0,0
    1b08:	0050                	addi	a2,sp,4
    1b0a:	0402                	c.slli64	s0
    1b0c:	09010303          	lb	t1,144(sp)
    1b10:	0018                	0x18
    1b12:	0001                	nop
    1b14:	0402                	c.slli64	s0
    1b16:	097f0303          	lb	t1,151(t5)
    1b1a:	0004                	0x4
    1b1c:	0001                	nop
    1b1e:	0402                	c.slli64	s0
    1b20:	09010303          	lb	t1,144(sp)
    1b24:	0004                	0x4
    1b26:	0001                	nop
    1b28:	0402                	c.slli64	s0
    1b2a:	09010303          	lb	t1,144(sp)
    1b2e:	0004                	0x4
    1b30:	0001                	nop
    1b32:	0402                	c.slli64	s0
    1b34:	097e0303          	lb	t1,151(t3)
    1b38:	0004                	0x4
    1b3a:	0001                	nop
    1b3c:	0402                	c.slli64	s0
    1b3e:	09010303          	lb	t1,144(sp)
    1b42:	0004                	0x4
    1b44:	0001                	nop
    1b46:	0402                	c.slli64	s0
    1b48:	09010303          	lb	t1,144(sp)
    1b4c:	0004                	0x4
    1b4e:	0001                	nop
    1b50:	0402                	c.slli64	s0
    1b52:	09010303          	lb	t1,144(sp)
    1b56:	0004                	0x4
    1b58:	0001                	nop
    1b5a:	0402                	c.slli64	s0
    1b5c:	097e0303          	lb	t1,151(t3)
    1b60:	0004                	0x4
    1b62:	0001                	nop
    1b64:	0402                	c.slli64	s0
    1b66:	097f0303          	lb	t1,151(t5)
    1b6a:	0004                	0x4
    1b6c:	0001                	nop
    1b6e:	0402                	c.slli64	s0
    1b70:	09020303          	lb	t1,144(tp) # 90 <_heap_size+0x90>
    1b74:	0004                	0x4
    1b76:	0001                	nop
    1b78:	0402                	c.slli64	s0
    1b7a:	097e0303          	lb	t1,151(t3)
    1b7e:	0004                	0x4
    1b80:	0001                	nop
    1b82:	0402                	c.slli64	s0
    1b84:	09010303          	lb	t1,144(sp)
    1b88:	0004                	0x4
    1b8a:	0001                	nop
    1b8c:	0402                	c.slli64	s0
    1b8e:	09010303          	lb	t1,144(sp)
    1b92:	0004                	0x4
    1b94:	0001                	nop
    1b96:	0402                	c.slli64	s0
    1b98:	09010303          	lb	t1,144(sp)
    1b9c:	0004                	0x4
    1b9e:	0001                	nop
    1ba0:	0402                	c.slli64	s0
    1ba2:	097e0303          	lb	t1,151(t3)
    1ba6:	0004                	0x4
    1ba8:	0001                	nop
    1baa:	0402                	c.slli64	s0
    1bac:	09020303          	lb	t1,144(tp) # 90 <_heap_size+0x90>
    1bb0:	0004                	0x4
    1bb2:	0001                	nop
    1bb4:	0402                	c.slli64	s0
    1bb6:	097e0303          	lb	t1,151(t3)
    1bba:	0004                	0x4
    1bbc:	0001                	nop
    1bbe:	0402                	c.slli64	s0
    1bc0:	097f0303          	lb	t1,151(t5)
    1bc4:	0004                	0x4
    1bc6:	0001                	nop
    1bc8:	0402                	c.slli64	s0
    1bca:	09020303          	lb	t1,144(tp) # 90 <_heap_size+0x90>
    1bce:	0008                	0x8
    1bd0:	0001                	nop
    1bd2:	0402                	c.slli64	s0
    1bd4:	097f0303          	lb	t1,151(t5)
    1bd8:	0004                	0x4
    1bda:	0001                	nop
    1bdc:	0402                	c.slli64	s0
    1bde:	09020303          	lb	t1,144(tp) # 90 <_heap_size+0x90>
    1be2:	0004                	0x4
    1be4:	0001                	nop
    1be6:	0402                	c.slli64	s0
    1be8:	097e0303          	lb	t1,151(t3)
    1bec:	0008                	0x8
    1bee:	0001                	nop
    1bf0:	0402                	c.slli64	s0
    1bf2:	09010303          	lb	t1,144(sp)
    1bf6:	0004                	0x4
    1bf8:	0001                	nop
    1bfa:	0402                	c.slli64	s0
    1bfc:	097f0303          	lb	t1,151(t5)
    1c00:	0004                	0x4
    1c02:	0001                	nop
    1c04:	0402                	c.slli64	s0
    1c06:	097f0303          	lb	t1,151(t5)
    1c0a:	0004                	0x4
    1c0c:	0001                	nop
    1c0e:	0402                	c.slli64	s0
    1c10:	09020303          	lb	t1,144(tp) # 90 <_heap_size+0x90>
    1c14:	0004                	0x4
    1c16:	0001                	nop
    1c18:	0402                	c.slli64	s0
    1c1a:	09010303          	lb	t1,144(sp)
    1c1e:	0004                	0x4
    1c20:	0001                	nop
    1c22:	0402                	c.slli64	s0
    1c24:	097d0303          	lb	t1,151(s10)
    1c28:	0004                	0x4
    1c2a:	0001                	nop
    1c2c:	0402                	c.slli64	s0
    1c2e:	09020303          	lb	t1,144(tp) # 90 <_heap_size+0x90>
    1c32:	0004                	0x4
    1c34:	0001                	nop
    1c36:	0402                	c.slli64	s0
    1c38:	097f0303          	lb	t1,151(t5)
    1c3c:	0004                	0x4
    1c3e:	0001                	nop
    1c40:	0402                	c.slli64	s0
    1c42:	09020303          	lb	t1,144(tp) # 90 <_heap_size+0x90>
    1c46:	0004                	0x4
    1c48:	0001                	nop
    1c4a:	0402                	c.slli64	s0
    1c4c:	097e0303          	lb	t1,151(t3)
    1c50:	0004                	0x4
    1c52:	0001                	nop
    1c54:	0402                	c.slli64	s0
    1c56:	097f0303          	lb	t1,151(t5)
    1c5a:	0004                	0x4
    1c5c:	0001                	nop
    1c5e:	0402                	c.slli64	s0
    1c60:	09020303          	lb	t1,144(tp) # 90 <_heap_size+0x90>
    1c64:	0004                	0x4
    1c66:	0001                	nop
    1c68:	0402                	c.slli64	s0
    1c6a:	09010303          	lb	t1,144(sp)
    1c6e:	0004                	0x4
    1c70:	0001                	nop
    1c72:	0402                	c.slli64	s0
    1c74:	097d0303          	lb	t1,151(s10)
    1c78:	0004                	0x4
    1c7a:	0001                	nop
    1c7c:	0402                	c.slli64	s0
    1c7e:	09020303          	lb	t1,144(tp) # 90 <_heap_size+0x90>
    1c82:	0004                	0x4
    1c84:	0501                	addi	a0,a0,0
    1c86:	0014                	0x14
    1c88:	0402                	c.slli64	s0
    1c8a:	097f0303          	lb	t1,151(t5)
    1c8e:	0004                	0x4
    1c90:	0501                	addi	a0,a0,0
    1c92:	0050                	addi	a2,sp,4
    1c94:	0402                	c.slli64	s0
    1c96:	09020303          	lb	t1,144(tp) # 90 <_heap_size+0x90>
    1c9a:	0004                	0x4
    1c9c:	0501                	addi	a0,a0,0
    1c9e:	0011                	c.nop	4
    1ca0:	0402                	c.slli64	s0
    1ca2:	09760303          	lb	t1,151(a2) # 309d7 <_stack_size+0x301d7>
    1ca6:	0004                	0x4
    1ca8:	0501                	addi	a0,a0,0
    1caa:	0050                	addi	a2,sp,4
    1cac:	0402                	c.slli64	s0
    1cae:	09070303          	lb	t1,144(a4)
    1cb2:	0004                	0x4
    1cb4:	0001                	nop
    1cb6:	0402                	c.slli64	s0
    1cb8:	09030303          	lb	t1,144(t1)
    1cbc:	0004                	0x4
    1cbe:	0001                	nop
    1cc0:	0402                	c.slli64	s0
    1cc2:	097f0303          	lb	t1,151(t5)
    1cc6:	0004                	0x4
    1cc8:	0501                	addi	a0,a0,0
    1cca:	0014                	0x14
    1ccc:	0402                	c.slli64	s0
    1cce:	097e0303          	lb	t1,151(t3)
    1cd2:	0004                	0x4
    1cd4:	0501                	addi	a0,a0,0
    1cd6:	0005                	c.nop	1
    1cd8:	0402                	c.slli64	s0
    1cda:	01030603          	lb	a2,16(t1)
    1cde:	0409                	addi	s0,s0,2
    1ce0:	0100                	addi	s0,sp,128
    1ce2:	0200                	addi	s0,sp,256
    1ce4:	0304                	addi	s1,sp,384
    1ce6:	00090103          	lb	sp,0(s2)
    1cea:	0100                	addi	s0,sp,128
    1cec:	1405                	addi	s0,s0,-31
    1cee:	0200                	addi	s0,sp,256
    1cf0:	0304                	addi	s1,sp,384
    1cf2:	0306                	slli	t1,t1,0x1
    1cf4:	0900                	addi	s0,sp,144
    1cf6:	0000                	unimp
    1cf8:	0501                	addi	a0,a0,0
    1cfa:	0005                	c.nop	1
    1cfc:	0402                	c.slli64	s0
    1cfe:	01030603          	lb	a2,16(t1)
    1d02:	0409                	addi	s0,s0,2
    1d04:	0100                	addi	s0,sp,128
    1d06:	1405                	addi	s0,s0,-31
    1d08:	0200                	addi	s0,sp,256
    1d0a:	0304                	addi	s1,sp,384
    1d0c:	0306                	slli	t1,t1,0x1
    1d0e:	0900                	addi	s0,sp,144
    1d10:	0000                	unimp
    1d12:	0501                	addi	a0,a0,0
    1d14:	0016                	c.slli	zero,0x5
    1d16:	0402                	c.slli64	s0
    1d18:	76030603          	lb	a2,1888(t1)
    1d1c:	0409                	addi	s0,s0,2
    1d1e:	0100                	addi	s0,sp,128
    1d20:	1105                	addi	sp,sp,-31
    1d22:	0200                	addi	s0,sp,256
    1d24:	0304                	addi	s1,sp,384
    1d26:	00090003          	lb	zero,0(s2)
    1d2a:	0100                	addi	s0,sp,128
    1d2c:	0105                	addi	sp,sp,1
    1d2e:	0306                	slli	t1,t1,0x1
    1d30:	090c                	addi	a1,sp,144
    1d32:	0008                	0x8
    1d34:	0601                	addi	a2,a2,0
    1d36:	3c090603          	lb	a2,960(s2)
    1d3a:	0100                	addi	s0,sp,128
    1d3c:	0305                	addi	t1,t1,1
    1d3e:	00090103          	lb	sp,0(s2)
    1d42:	0100                	addi	s0,sp,128
    1d44:	00090103          	lb	sp,0(s2)
    1d48:	0100                	addi	s0,sp,128
    1d4a:	1105                	addi	sp,sp,-31
    1d4c:	00090003          	lb	zero,0(s2)
    1d50:	0100                	addi	s0,sp,128
    1d52:	1305                	addi	t1,t1,-31
    1d54:	00090203          	lb	tp,0(s2)
    1d58:	0100                	addi	s0,sp,128
    1d5a:	0705                	addi	a4,a4,1
    1d5c:	00090203          	lb	tp,0(s2)
    1d60:	0100                	addi	s0,sp,128
    1d62:	1805                	addi	a6,a6,-31
    1d64:	0306                	slli	t1,t1,0x1
    1d66:	0900                	addi	s0,sp,144
    1d68:	0000                	unimp
    1d6a:	0501                	addi	a0,a0,0
    1d6c:	0316                	slli	t1,t1,0x5
    1d6e:	0900                	addi	s0,sp,144
    1d70:	005c                	addi	a5,sp,4
    1d72:	0501                	addi	a0,a0,0
    1d74:	0318                	addi	a4,sp,384
    1d76:	0900                	addi	s0,sp,144
    1d78:	0028                	addi	a0,sp,8
    1d7a:	0501                	addi	a0,a0,0
    1d7c:	0316                	slli	t1,t1,0x5
    1d7e:	0900                	addi	s0,sp,144
    1d80:	0004                	0x4
    1d82:	0501                	addi	a0,a0,0
    1d84:	0618                	addi	a4,sp,768
    1d86:	18097e03          	0x18097e03
    1d8a:	0100                	addi	s0,sp,128
    1d8c:	1305                	addi	t1,t1,-31
    1d8e:	00090003          	lb	zero,0(s2)
    1d92:	0100                	addi	s0,sp,128
    1d94:	0705                	addi	a4,a4,1
    1d96:	00090203          	lb	tp,0(s2)
    1d9a:	0100                	addi	s0,sp,128
    1d9c:	1605                	addi	a2,a2,-31
    1d9e:	0306                	slli	t1,t1,0x1
    1da0:	0900                	addi	s0,sp,144
    1da2:	0000                	unimp
    1da4:	0501                	addi	a0,a0,0
    1da6:	0618                	addi	a4,sp,768
    1da8:	04097e03          	0x4097e03
    1dac:	0100                	addi	s0,sp,128
    1dae:	1305                	addi	t1,t1,-31
    1db0:	00090003          	lb	zero,0(s2)
    1db4:	0100                	addi	s0,sp,128
    1db6:	0705                	addi	a4,a4,1
    1db8:	00090203          	lb	tp,0(s2)
    1dbc:	0100                	addi	s0,sp,128
    1dbe:	1605                	addi	a2,a2,-31
    1dc0:	0306                	slli	t1,t1,0x1
    1dc2:	0900                	addi	s0,sp,144
    1dc4:	0000                	unimp
    1dc6:	0501                	addi	a0,a0,0
    1dc8:	0618                	addi	a4,sp,768
    1dca:	04097e03          	0x4097e03
    1dce:	0100                	addi	s0,sp,128
    1dd0:	1305                	addi	t1,t1,-31
    1dd2:	00090003          	lb	zero,0(s2)
    1dd6:	0100                	addi	s0,sp,128
    1dd8:	0705                	addi	a4,a4,1
    1dda:	00090203          	lb	tp,0(s2)
    1dde:	0100                	addi	s0,sp,128
    1de0:	1605                	addi	a2,a2,-31
    1de2:	0306                	slli	t1,t1,0x1
    1de4:	0900                	addi	s0,sp,144
    1de6:	0000                	unimp
    1de8:	0501                	addi	a0,a0,0
    1dea:	0618                	addi	a4,sp,768
    1dec:	04097e03          	0x4097e03
    1df0:	0100                	addi	s0,sp,128
    1df2:	1305                	addi	t1,t1,-31
    1df4:	00090003          	lb	zero,0(s2)
    1df8:	0100                	addi	s0,sp,128
    1dfa:	1605                	addi	a2,a2,-31
    1dfc:	00097e03          	0x97e03
    1e00:	0100                	addi	s0,sp,128
    1e02:	1105                	addi	sp,sp,-31
    1e04:	00090003          	lb	zero,0(s2)
    1e08:	0100                	addi	s0,sp,128
    1e0a:	1305                	addi	t1,t1,-31
    1e0c:	00090203          	lb	tp,0(s2)
    1e10:	0100                	addi	s0,sp,128
    1e12:	0705                	addi	a4,a4,1
    1e14:	00090203          	lb	tp,0(s2)
    1e18:	0100                	addi	s0,sp,128
    1e1a:	1605                	addi	a2,a2,-31
    1e1c:	0306                	slli	t1,t1,0x1
    1e1e:	0900                	addi	s0,sp,144
    1e20:	0000                	unimp
    1e22:	0501                	addi	a0,a0,0
    1e24:	0618                	addi	a4,sp,768
    1e26:	04097e03          	0x4097e03
    1e2a:	0100                	addi	s0,sp,128
    1e2c:	1305                	addi	t1,t1,-31
    1e2e:	00090003          	lb	zero,0(s2)
    1e32:	0100                	addi	s0,sp,128
    1e34:	0705                	addi	a4,a4,1
    1e36:	00090203          	lb	tp,0(s2)
    1e3a:	0100                	addi	s0,sp,128
    1e3c:	1605                	addi	a2,a2,-31
    1e3e:	0306                	slli	t1,t1,0x1
    1e40:	0900                	addi	s0,sp,144
    1e42:	0000                	unimp
    1e44:	0501                	addi	a0,a0,0
    1e46:	0618                	addi	a4,sp,768
    1e48:	04097e03          	0x4097e03
    1e4c:	0100                	addi	s0,sp,128
    1e4e:	1305                	addi	t1,t1,-31
    1e50:	00090003          	lb	zero,0(s2)
    1e54:	0100                	addi	s0,sp,128
    1e56:	0705                	addi	a4,a4,1
    1e58:	00090203          	lb	tp,0(s2)
    1e5c:	0100                	addi	s0,sp,128
    1e5e:	1805                	addi	a6,a6,-31
    1e60:	00097e03          	0x97e03
    1e64:	0100                	addi	s0,sp,128
    1e66:	1305                	addi	t1,t1,-31
    1e68:	00090003          	lb	zero,0(s2)
    1e6c:	0100                	addi	s0,sp,128
    1e6e:	0705                	addi	a4,a4,1
    1e70:	00090203          	lb	tp,0(s2)
    1e74:	0100                	addi	s0,sp,128
    1e76:	1805                	addi	a6,a6,-31
    1e78:	00097e03          	0x97e03
    1e7c:	0100                	addi	s0,sp,128
    1e7e:	1305                	addi	t1,t1,-31
    1e80:	00090003          	lb	zero,0(s2)
    1e84:	0100                	addi	s0,sp,128
    1e86:	1605                	addi	a2,a2,-31
    1e88:	00097e03          	0x97e03
    1e8c:	0100                	addi	s0,sp,128
    1e8e:	1105                	addi	sp,sp,-31
    1e90:	00090003          	lb	zero,0(s2)
    1e94:	0100                	addi	s0,sp,128
    1e96:	1305                	addi	t1,t1,-31
    1e98:	00090203          	lb	tp,0(s2)
    1e9c:	0100                	addi	s0,sp,128
    1e9e:	0705                	addi	a4,a4,1
    1ea0:	00090203          	lb	tp,0(s2)
    1ea4:	0100                	addi	s0,sp,128
    1ea6:	1805                	addi	a6,a6,-31
    1ea8:	00097e03          	0x97e03
    1eac:	0100                	addi	s0,sp,128
    1eae:	1305                	addi	t1,t1,-31
    1eb0:	00090003          	lb	zero,0(s2)
    1eb4:	0100                	addi	s0,sp,128
    1eb6:	0705                	addi	a4,a4,1
    1eb8:	00090203          	lb	tp,0(s2)
    1ebc:	0100                	addi	s0,sp,128
    1ebe:	1805                	addi	a6,a6,-31
    1ec0:	00097e03          	0x97e03
    1ec4:	0100                	addi	s0,sp,128
    1ec6:	1305                	addi	t1,t1,-31
    1ec8:	00090003          	lb	zero,0(s2)
    1ecc:	0100                	addi	s0,sp,128
    1ece:	0705                	addi	a4,a4,1
    1ed0:	00090203          	lb	tp,0(s2)
    1ed4:	0100                	addi	s0,sp,128
    1ed6:	1605                	addi	a2,a2,-31
    1ed8:	0306                	slli	t1,t1,0x1
    1eda:	0900                	addi	s0,sp,144
    1edc:	0000                	unimp
    1ede:	0501                	addi	a0,a0,0
    1ee0:	0618                	addi	a4,sp,768
    1ee2:	04097e03          	0x4097e03
    1ee6:	0100                	addi	s0,sp,128
    1ee8:	1305                	addi	t1,t1,-31
    1eea:	00090003          	lb	zero,0(s2)
    1eee:	0100                	addi	s0,sp,128
    1ef0:	0705                	addi	a4,a4,1
    1ef2:	00090203          	lb	tp,0(s2)
    1ef6:	0100                	addi	s0,sp,128
    1ef8:	1805                	addi	a6,a6,-31
    1efa:	0306                	slli	t1,t1,0x1
    1efc:	0900                	addi	s0,sp,144
    1efe:	0000                	unimp
    1f00:	0501                	addi	a0,a0,0
    1f02:	0316                	slli	t1,t1,0x5
    1f04:	0900                	addi	s0,sp,144
    1f06:	0028                	addi	a0,sp,8
    1f08:	0501                	addi	a0,a0,0
    1f0a:	0618                	addi	a4,sp,768
    1f0c:	18097e03          	0x18097e03
    1f10:	0100                	addi	s0,sp,128
    1f12:	1305                	addi	t1,t1,-31
    1f14:	00090003          	lb	zero,0(s2)
    1f18:	0100                	addi	s0,sp,128
    1f1a:	1605                	addi	a2,a2,-31
    1f1c:	00097e03          	0x97e03
    1f20:	0100                	addi	s0,sp,128
    1f22:	1105                	addi	sp,sp,-31
    1f24:	00090003          	lb	zero,0(s2)
    1f28:	0100                	addi	s0,sp,128
    1f2a:	1305                	addi	t1,t1,-31
    1f2c:	00090203          	lb	tp,0(s2)
    1f30:	0100                	addi	s0,sp,128
    1f32:	0705                	addi	a4,a4,1
    1f34:	00090203          	lb	tp,0(s2)
    1f38:	0100                	addi	s0,sp,128
    1f3a:	1605                	addi	a2,a2,-31
    1f3c:	0306                	slli	t1,t1,0x1
    1f3e:	0900                	addi	s0,sp,144
    1f40:	0000                	unimp
    1f42:	0501                	addi	a0,a0,0
    1f44:	0618                	addi	a4,sp,768
    1f46:	04097e03          	0x4097e03
    1f4a:	0100                	addi	s0,sp,128
    1f4c:	1305                	addi	t1,t1,-31
    1f4e:	00090003          	lb	zero,0(s2)
    1f52:	0100                	addi	s0,sp,128
    1f54:	0705                	addi	a4,a4,1
    1f56:	00090203          	lb	tp,0(s2)
    1f5a:	0100                	addi	s0,sp,128
    1f5c:	1605                	addi	a2,a2,-31
    1f5e:	0306                	slli	t1,t1,0x1
    1f60:	0900                	addi	s0,sp,144
    1f62:	0000                	unimp
    1f64:	0501                	addi	a0,a0,0
    1f66:	0618                	addi	a4,sp,768
    1f68:	04097e03          	0x4097e03
    1f6c:	0100                	addi	s0,sp,128
    1f6e:	1305                	addi	t1,t1,-31
    1f70:	00090003          	lb	zero,0(s2)
    1f74:	0100                	addi	s0,sp,128
    1f76:	0705                	addi	a4,a4,1
    1f78:	00090203          	lb	tp,0(s2)
    1f7c:	0100                	addi	s0,sp,128
    1f7e:	1605                	addi	a2,a2,-31
    1f80:	0306                	slli	t1,t1,0x1
    1f82:	0900                	addi	s0,sp,144
    1f84:	0000                	unimp
    1f86:	0501                	addi	a0,a0,0
    1f88:	0618                	addi	a4,sp,768
    1f8a:	04097e03          	0x4097e03
    1f8e:	0100                	addi	s0,sp,128
    1f90:	1305                	addi	t1,t1,-31
    1f92:	00090003          	lb	zero,0(s2)
    1f96:	0100                	addi	s0,sp,128
    1f98:	0705                	addi	a4,a4,1
    1f9a:	00090203          	lb	tp,0(s2)
    1f9e:	0100                	addi	s0,sp,128
    1fa0:	1605                	addi	a2,a2,-31
    1fa2:	0306                	slli	t1,t1,0x1
    1fa4:	0900                	addi	s0,sp,144
    1fa6:	0000                	unimp
    1fa8:	0501                	addi	a0,a0,0
    1faa:	0618                	addi	a4,sp,768
    1fac:	04097e03          	0x4097e03
    1fb0:	0100                	addi	s0,sp,128
    1fb2:	1305                	addi	t1,t1,-31
    1fb4:	00090003          	lb	zero,0(s2)
    1fb8:	0100                	addi	s0,sp,128
    1fba:	1605                	addi	a2,a2,-31
    1fbc:	00097e03          	0x97e03
    1fc0:	0100                	addi	s0,sp,128
    1fc2:	1105                	addi	sp,sp,-31
    1fc4:	00090003          	lb	zero,0(s2)
    1fc8:	0100                	addi	s0,sp,128
    1fca:	0105                	addi	sp,sp,1
    1fcc:	0306                	slli	t1,t1,0x1
    1fce:	00000907          	0x907
    1fd2:	0601                	addi	a2,a2,0
    1fd4:	04090303          	lb	t1,64(s2)
    1fd8:	0100                	addi	s0,sp,128
    1fda:	0305                	addi	t1,t1,1
    1fdc:	00090103          	lb	sp,0(s2)
    1fe0:	0100                	addi	s0,sp,128
    1fe2:	00090303          	lb	t1,0(s2)
    1fe6:	0100                	addi	s0,sp,128
    1fe8:	0805                	addi	a6,a6,1
    1fea:	0306                	slli	t1,t1,0x1
    1fec:	0900                	addi	s0,sp,144
    1fee:	0000                	unimp
    1ff0:	0501                	addi	a0,a0,0
    1ff2:	01030603          	lb	a2,16(t1)
    1ff6:	0409                	addi	s0,s0,2
    1ff8:	0100                	addi	s0,sp,128
    1ffa:	1205                	addi	tp,tp,-31
    1ffc:	0306                	slli	t1,t1,0x1
    1ffe:	0900                	addi	s0,sp,144
    2000:	0000                	unimp
    2002:	0301                	addi	t1,t1,0
    2004:	0901                	addi	s2,s2,0
    2006:	0004                	0x4
    2008:	0301                	addi	t1,t1,0
    200a:	0901                	addi	s2,s2,0
    200c:	0004                	0x4
    200e:	0501                	addi	a0,a0,0
    2010:	0308                	addi	a0,sp,384
    2012:	0904                	addi	s1,sp,144
    2014:	0004                	0x4
    2016:	0501                	addi	a0,a0,0
    2018:	0312                	slli	t1,t1,0x4
    201a:	0901                	addi	s2,s2,0
    201c:	0004                	0x4
    201e:	0501                	addi	a0,a0,0
    2020:	0308                	addi	a0,sp,384
    2022:	00040903          	lb	s2,0(s0)
    2026:	0501                	addi	a0,a0,0
    2028:	0312                	slli	t1,t1,0x4
    202a:	0901                	addi	s2,s2,0
    202c:	0004                	0x4
    202e:	0501                	addi	a0,a0,0
    2030:	0308                	addi	a0,sp,384
    2032:	0904                	addi	s1,sp,144
    2034:	0004                	0x4
    2036:	0501                	addi	a0,a0,0
    2038:	0312                	slli	t1,t1,0x4
    203a:	0901                	addi	s2,s2,0
    203c:	0004                	0x4
    203e:	0301                	addi	t1,t1,0
    2040:	0901                	addi	s2,s2,0
    2042:	0004                	0x4
    2044:	0301                	addi	t1,t1,0
    2046:	0901                	addi	s2,s2,0
    2048:	0004                	0x4
    204a:	0301                	addi	t1,t1,0
    204c:	096e                	slli	s2,s2,0x1b
    204e:	0004                	0x4
    2050:	0501                	addi	a0,a0,0
    2052:	01030603          	lb	a2,16(t1)
    2056:	0409                	addi	s0,s0,2
    2058:	0100                	addi	s0,sp,128
    205a:	1205                	addi	tp,tp,-31
    205c:	0306                	slli	t1,t1,0x1
    205e:	0900                	addi	s0,sp,144
    2060:	0000                	unimp
    2062:	0501                	addi	a0,a0,0
    2064:	01030603          	lb	a2,16(t1)
    2068:	0409                	addi	s0,s0,2
    206a:	0100                	addi	s0,sp,128
    206c:	1205                	addi	tp,tp,-31
    206e:	0306                	slli	t1,t1,0x1
    2070:	0900                	addi	s0,sp,144
    2072:	0000                	unimp
    2074:	0501                	addi	a0,a0,0
    2076:	01030603          	lb	a2,16(t1)
    207a:	0409                	addi	s0,s0,2
    207c:	0100                	addi	s0,sp,128
    207e:	1205                	addi	tp,tp,-31
    2080:	0306                	slli	t1,t1,0x1
    2082:	0900                	addi	s0,sp,144
    2084:	0000                	unimp
    2086:	0501                	addi	a0,a0,0
    2088:	03030603          	lb	a2,48(t1)
    208c:	0409                	addi	s0,s0,2
    208e:	0100                	addi	s0,sp,128
    2090:	00090103          	lb	sp,0(s2)
    2094:	0100                	addi	s0,sp,128
    2096:	1205                	addi	tp,tp,-31
    2098:	0306                	slli	t1,t1,0x1
    209a:	0900                	addi	s0,sp,144
    209c:	0000                	unimp
    209e:	0501                	addi	a0,a0,0
    20a0:	01030603          	lb	a2,16(t1)
    20a4:	0409                	addi	s0,s0,2
    20a6:	0100                	addi	s0,sp,128
    20a8:	1205                	addi	tp,tp,-31
    20aa:	0306                	slli	t1,t1,0x1
    20ac:	0900                	addi	s0,sp,144
    20ae:	0000                	unimp
    20b0:	0501                	addi	a0,a0,0
    20b2:	02030603          	lb	a2,32(t1)
    20b6:	0409                	addi	s0,s0,2
    20b8:	0100                	addi	s0,sp,128
    20ba:	00090103          	lb	sp,0(s2)
    20be:	0100                	addi	s0,sp,128
    20c0:	1205                	addi	tp,tp,-31
    20c2:	0306                	slli	t1,t1,0x1
    20c4:	0900                	addi	s0,sp,144
    20c6:	0000                	unimp
    20c8:	0501                	addi	a0,a0,0
    20ca:	01030603          	lb	a2,16(t1)
    20ce:	0409                	addi	s0,s0,2
    20d0:	0100                	addi	s0,sp,128
    20d2:	1205                	addi	tp,tp,-31
    20d4:	0306                	slli	t1,t1,0x1
    20d6:	0900                	addi	s0,sp,144
    20d8:	0000                	unimp
    20da:	0501                	addi	a0,a0,0
    20dc:	03030603          	lb	a2,48(t1)
    20e0:	0409                	addi	s0,s0,2
    20e2:	0100                	addi	s0,sp,128
    20e4:	00090103          	lb	sp,0(s2)
    20e8:	0100                	addi	s0,sp,128
    20ea:	1205                	addi	tp,tp,-31
    20ec:	0306                	slli	t1,t1,0x1
    20ee:	0900                	addi	s0,sp,144
    20f0:	0000                	unimp
    20f2:	0501                	addi	a0,a0,0
    20f4:	01030603          	lb	a2,16(t1)
    20f8:	0409                	addi	s0,s0,2
    20fa:	0100                	addi	s0,sp,128
    20fc:	1205                	addi	tp,tp,-31
    20fe:	0306                	slli	t1,t1,0x1
    2100:	0900                	addi	s0,sp,144
    2102:	0000                	unimp
    2104:	0501                	addi	a0,a0,0
    2106:	01030603          	lb	a2,16(t1)
    210a:	0409                	addi	s0,s0,2
    210c:	0100                	addi	s0,sp,128
    210e:	1205                	addi	tp,tp,-31
    2110:	0306                	slli	t1,t1,0x1
    2112:	0900                	addi	s0,sp,144
    2114:	0000                	unimp
    2116:	0501                	addi	a0,a0,0
    2118:	01030603          	lb	a2,16(t1)
    211c:	0409                	addi	s0,s0,2
    211e:	0100                	addi	s0,sp,128
    2120:	1205                	addi	tp,tp,-31
    2122:	0306                	slli	t1,t1,0x1
    2124:	0900                	addi	s0,sp,144
    2126:	0000                	unimp
    2128:	0501                	addi	a0,a0,0
    212a:	0301                	addi	t1,t1,0
    212c:	0901                	addi	s2,s2,0
    212e:	0004                	0x4
    2130:	0601                	addi	a2,a2,0
    2132:	04090403          	lb	s0,64(s2)
    2136:	0100                	addi	s0,sp,128
    2138:	0305                	addi	t1,t1,1
    213a:	00090103          	lb	sp,0(s2)
    213e:	0100                	addi	s0,sp,128
    2140:	00090403          	lb	s0,0(s2)
    2144:	0100                	addi	s0,sp,128
    2146:	0105                	addi	sp,sp,1
    2148:	0306                	slli	t1,t1,0x1
    214a:	0000097b          	0x97b
    214e:	0501                	addi	a0,a0,0
    2150:	09050317          	auipc	t1,0x9050
    2154:	0004                	0x4
    2156:	0501                	addi	a0,a0,0
    2158:	0301                	addi	t1,t1,0
    215a:	0004097b          	0x4097b
    215e:	0501                	addi	a0,a0,0
    2160:	09050317          	auipc	t1,0x9050
    2164:	0014                	0x14
    2166:	0501                	addi	a0,a0,0
    2168:	09010303          	lb	t1,144(sp)
    216c:	0008                	0x8
    216e:	0501                	addi	a0,a0,0
    2170:	0301                	addi	t1,t1,0
    2172:	097a                	slli	s2,s2,0x1e
    2174:	0004                	0x4
    2176:	0501                	addi	a0,a0,0
    2178:	09050317          	auipc	t1,0x9050
    217c:	0008                	0x8
    217e:	0501                	addi	a0,a0,0
    2180:	01030603          	lb	a2,16(t1) # 9052188 <_stack_size+0x9051988>
    2184:	0409                	addi	s0,s0,2
    2186:	0100                	addi	s0,sp,128
    2188:	0c090703          	lb	a4,192(s2)
    218c:	0100                	addi	s0,sp,128
    218e:	1905                	addi	s2,s2,-31
    2190:	00090003          	lb	zero,0(s2)
    2194:	0100                	addi	s0,sp,128
    2196:	0e05                	addi	t3,t3,1
    2198:	0306                	slli	t1,t1,0x1
    219a:	0900                	addi	s0,sp,144
    219c:	0000                	unimp
    219e:	0501                	addi	a0,a0,0
    21a0:	0319                	addi	t1,t1,6
    21a2:	0900                	addi	s0,sp,144
    21a4:	0004                	0x4
    21a6:	0501                	addi	a0,a0,0
    21a8:	0002                	c.slli64	zero
    21aa:	0402                	c.slli64	s0
    21ac:	02030603          	lb	a2,32(t1)
    21b0:	0409                	addi	s0,s0,2
    21b2:	0100                	addi	s0,sp,128
    21b4:	0505                	addi	a0,a0,1
    21b6:	0200                	addi	s0,sp,256
    21b8:	0304                	addi	s1,sp,384
    21ba:	08090303          	lb	t1,128(s2)
    21be:	0100                	addi	s0,sp,128
    21c0:	0200                	addi	s0,sp,256
    21c2:	0304                	addi	s1,sp,384
    21c4:	08090303          	lb	t1,128(s2)
    21c8:	0100                	addi	s0,sp,128
    21ca:	0200                	addi	s0,sp,256
    21cc:	0304                	addi	s1,sp,384
    21ce:	08090303          	lb	t1,128(s2)
    21d2:	0100                	addi	s0,sp,128
    21d4:	1f05                	addi	t5,t5,-31
    21d6:	0200                	addi	s0,sp,256
    21d8:	0304                	addi	s1,sp,384
    21da:	0306                	slli	t1,t1,0x1
    21dc:	0975                	addi	s2,s2,29
    21de:	0004                	0x4
    21e0:	0501                	addi	a0,a0,0
    21e2:	0005                	c.nop	1
    21e4:	0402                	c.slli64	s0
    21e6:	090b0303          	lb	t1,144(s6)
    21ea:	0004                	0x4
    21ec:	0501                	addi	a0,a0,0
    21ee:	001f 0402 0303      	0x3030402001f
    21f4:	0975                	addi	s2,s2,29
    21f6:	0008                	0x8
    21f8:	0501                	addi	a0,a0,0
    21fa:	0005                	c.nop	1
    21fc:	0402                	c.slli64	s0
    21fe:	090b0303          	lb	t1,144(s6)
    2202:	0004                	0x4
    2204:	0501                	addi	a0,a0,0
    2206:	001f 0402 0603      	0x6030402001f
    220c:	04097503          	0x4097503
    2210:	0100                	addi	s0,sp,128
    2212:	1905                	addi	s2,s2,-31
    2214:	0200                	addi	s0,sp,256
    2216:	0304                	addi	s1,sp,384
    2218:	00090003          	lb	zero,0(s2)
    221c:	0100                	addi	s0,sp,128
    221e:	0305                	addi	t1,t1,1
    2220:	04091203          	lh	tp,64(s2)
    2224:	0100                	addi	s0,sp,128
    2226:	08090303          	lb	t1,128(s2)
    222a:	0100                	addi	s0,sp,128
    222c:	08090303          	lb	t1,128(s2)
    2230:	0100                	addi	s0,sp,128
    2232:	10090303          	lb	t1,256(s2)
    2236:	0100                	addi	s0,sp,128
    2238:	0105                	addi	sp,sp,1
    223a:	0306                	slli	t1,t1,0x1
    223c:	0901                	addi	s2,s2,0
    223e:	0000                	unimp
    2240:	0501                	addi	a0,a0,0
    2242:	097f0317          	auipc	t1,0x97f0
    2246:	0008                	0x8
    2248:	0501                	addi	a0,a0,0
    224a:	0301                	addi	t1,t1,0
    224c:	0901                	addi	s2,s2,0
    224e:	0008                	0x8
    2250:	0601                	addi	a2,a2,0
    2252:	14090503          	lb	a0,320(s2)
    2256:	0100                	addi	s0,sp,128
    2258:	0305                	addi	t1,t1,1
    225a:	00090103          	lb	sp,0(s2)
    225e:	0100                	addi	s0,sp,128
    2260:	00090303          	lb	t1,0(s2)
    2264:	0100                	addi	s0,sp,128
    2266:	0105                	addi	sp,sp,1
    2268:	0306                	slli	t1,t1,0x1
    226a:	097c                	addi	a5,sp,156
    226c:	0000                	unimp
    226e:	0501                	addi	a0,a0,0
    2270:	09040303          	lb	t1,144(s0)
    2274:	000c                	0xc
    2276:	0501                	addi	a0,a0,0
    2278:	0301                	addi	t1,t1,0
    227a:	097c                	addi	a5,sp,156
    227c:	0004                	0x4
    227e:	0501                	addi	a0,a0,0
    2280:	09040303          	lb	t1,144(s0)
    2284:	0008                	0x8
    2286:	0501                	addi	a0,a0,0
    2288:	0301                	addi	t1,t1,0
    228a:	097c                	addi	a5,sp,156
    228c:	0008                	0x8
    228e:	0501                	addi	a0,a0,0
    2290:	030e                	slli	t1,t1,0x3
    2292:	0909                	addi	s2,s2,2
    2294:	0008                	0x8
    2296:	0501                	addi	a0,a0,0
    2298:	097b0303          	lb	t1,151(s6)
    229c:	0004                	0x4
    229e:	0601                	addi	a2,a2,0
    22a0:	04090503          	lb	a0,64(s2)
    22a4:	0100                	addi	s0,sp,128
    22a6:	2005                	jal	22c6 <_stack_size+0x1ac6>
    22a8:	00090003          	lb	zero,0(s2)
    22ac:	0100                	addi	s0,sp,128
    22ae:	0505                	addi	a0,a0,1
    22b0:	0200                	addi	s0,sp,256
    22b2:	0304                	addi	s1,sp,384
    22b4:	00090203          	lb	tp,0(s2)
    22b8:	0100                	addi	s0,sp,128
    22ba:	0200                	addi	s0,sp,256
    22bc:	0304                	addi	s1,sp,384
    22be:	08090103          	lb	sp,128(s2)
    22c2:	0100                	addi	s0,sp,128
    22c4:	0200                	addi	s0,sp,256
    22c6:	0304                	addi	s1,sp,384
    22c8:	08090103          	lb	sp,128(s2)
    22cc:	0100                	addi	s0,sp,128
    22ce:	0200                	addi	s0,sp,256
    22d0:	0304                	addi	s1,sp,384
    22d2:	10090103          	lb	sp,256(s2)
    22d6:	0100                	addi	s0,sp,128
    22d8:	2505                	jal	28f8 <_stack_size+0x20f8>
    22da:	0200                	addi	s0,sp,256
    22dc:	0304                	addi	s1,sp,384
    22de:	0306                	slli	t1,t1,0x1
    22e0:	0000097b          	0x97b
    22e4:	0501                	addi	a0,a0,0
    22e6:	0005                	c.nop	1
    22e8:	0402                	c.slli64	s0
    22ea:	09050303          	lb	t1,144(a0)
    22ee:	0004                	0x4
    22f0:	0501                	addi	a0,a0,0
    22f2:	0025                	c.nop	9
    22f4:	0402                	c.slli64	s0
    22f6:	097b0303          	lb	t1,151(s6)
    22fa:	0004                	0x4
    22fc:	0501                	addi	a0,a0,0
    22fe:	0005                	c.nop	1
    2300:	0402                	c.slli64	s0
    2302:	09050303          	lb	t1,144(a0)
    2306:	0004                	0x4
    2308:	0501                	addi	a0,a0,0
    230a:	0025                	c.nop	9
    230c:	0402                	c.slli64	s0
    230e:	7b030603          	lb	a2,1968(t1) # 97f29f2 <_stack_size+0x97f21f2>
    2312:	0409                	addi	s0,s0,2
    2314:	0100                	addi	s0,sp,128
    2316:	2005                	jal	2336 <_stack_size+0x1b36>
    2318:	0200                	addi	s0,sp,256
    231a:	0304                	addi	s1,sp,384
    231c:	00090003          	lb	zero,0(s2)
    2320:	0100                	addi	s0,sp,128
    2322:	0305                	addi	t1,t1,1
    2324:	04090a03          	lb	s4,64(s2)
    2328:	0100                	addi	s0,sp,128
    232a:	08090103          	lb	sp,128(s2)
    232e:	0100                	addi	s0,sp,128
    2330:	08090103          	lb	sp,128(s2)
    2334:	0100                	addi	s0,sp,128
    2336:	0105                	addi	sp,sp,1
    2338:	0306                	slli	t1,t1,0x1
    233a:	0902                	c.slli64	s2
    233c:	0000                	unimp
    233e:	0501                	addi	a0,a0,0
    2340:	097e0303          	lb	t1,151(t3)
    2344:	0008                	0x8
    2346:	0501                	addi	a0,a0,0
    2348:	0301                	addi	t1,t1,0
    234a:	0902                	c.slli64	s2
    234c:	0008                	0x8
    234e:	0501                	addi	a0,a0,0
    2350:	097e0303          	lb	t1,151(t3)
    2354:	0008                	0x8
    2356:	0501                	addi	a0,a0,0
    2358:	0301                	addi	t1,t1,0
    235a:	0902                	c.slli64	s2
    235c:	0004                	0x4
    235e:	0501                	addi	a0,a0,0
    2360:	097e0303          	lb	t1,151(t3)
    2364:	0004                	0x4
    2366:	0501                	addi	a0,a0,0
    2368:	0601                	addi	a2,a2,0
    236a:	097e8503          	lb	a0,151(t4)
    236e:	0004                	0x4
    2370:	0501                	addi	a0,a0,0
    2372:	09010303          	lb	t1,144(sp)
    2376:	0000                	unimp
    2378:	0501                	addi	a0,a0,0
    237a:	0301                	addi	t1,t1,0
    237c:	0282                	c.slli64	t0
    237e:	0409                	addi	s0,s0,2
    2380:	0100                	addi	s0,sp,128
    2382:	0305                	addi	t1,t1,1
    2384:	00090203          	lb	tp,0(s2)
    2388:	0100                	addi	s0,sp,128
    238a:	0105                	addi	sp,sp,1
    238c:	0306                	slli	t1,t1,0x1
    238e:	097e                	slli	s2,s2,0x1f
    2390:	0000                	unimp
    2392:	0501                	addi	a0,a0,0
    2394:	09020303          	lb	t1,144(tp) # 90 <_heap_size+0x90>
    2398:	0004                	0x4
    239a:	0501                	addi	a0,a0,0
    239c:	0601                	addi	a2,a2,0
    239e:	0c090403          	lb	s0,192(s2)
    23a2:	0100                	addi	s0,sp,128
    23a4:	0305                	addi	t1,t1,1
    23a6:	00090203          	lb	tp,0(s2)
    23aa:	0100                	addi	s0,sp,128
    23ac:	0105                	addi	sp,sp,1
    23ae:	0306                	slli	t1,t1,0x1
    23b0:	097e                	slli	s2,s2,0x1f
    23b2:	0000                	unimp
    23b4:	0501                	addi	a0,a0,0
    23b6:	09020303          	lb	t1,144(tp) # 90 <_heap_size+0x90>
    23ba:	0004                	0x4
    23bc:	0901                	addi	s2,s2,0
    23be:	000c                	0xc
    23c0:	0100                	addi	s0,sp,128
    23c2:	01              	Address 0x00000000000023c2 is out of bounds.


Disassembly of section .debug_str:

00000000 <.debug_str>:
   0:	4f4e                	lw	t5,208(sp)
   2:	454e                	lw	a0,208(sp)
   4:	7000                	flw	fs0,32(s0)
   6:	6972                	flw	fs2,28(sp)
   8:	746e                	flw	fs0,248(sp)
   a:	5500                	lw	s0,40(a0)
   c:	7261                	lui	tp,0xffff8
   e:	5f74                	lw	a3,124(a4)
  10:	6552                	flw	fa0,20(sp)
  12:	494c0067          	jr	1172(s8)
  16:	494d                	li	s2,19
  18:	0054                	addi	a3,sp,4
  1a:	6f6c                	flw	fa1,92(a4)
  1c:	676e                	flw	fa4,216(sp)
  1e:	6c20                	flw	fs0,88(s0)
  20:	20676e6f          	jal	t3,76226 <_stack_size+0x75a26>
  24:	6e75                	lui	t3,0x1d
  26:	6e676973          	csrrsi	s2,0x6e6,14
  2a:	6465                	lui	s0,0x19
  2c:	6920                	flw	fs0,80(a0)
  2e:	746e                	flw	fs0,248(sp)
  30:	6400                	flw	fs0,8(s0)
  32:	7461                	lui	s0,0xffff8
  34:	0061                	c.nop	24
  36:	45524f43          	0x45524f43
  3a:	485f 005a 6f6c      	0x6f6c005a485f
  40:	676e                	flw	fa4,216(sp)
  42:	6c20                	flw	fs0,88(s0)
  44:	20676e6f          	jal	t3,7624a <_stack_size+0x75a4a>
  48:	6e69                	lui	t3,0x1a
  4a:	0074                	addi	a3,sp,12
  4c:	656d                	lui	a0,0x1b
  4e:	6370                	flw	fa2,68(a4)
  50:	5500                	lw	s0,40(a0)
  52:	7261                	lui	tp,0xffff8
  54:	5374                	lw	a3,100(a4)
  56:	6f74                	flw	fa3,92(a4)
  58:	0070                	addi	a2,sp,12
  5a:	7865                	lui	a6,0xffff9
  5c:	74706563          	bltu	zero,t2,7a6 <_heap_size+0x7a6>
  60:	6f69                	lui	t5,0x1a
  62:	5f6e                	lw	t5,248(sp)
  64:	6461                	lui	s0,0x18
  66:	7264                	flw	fs1,100(a2)
  68:	6400                	flw	fs0,8(s0)
  6a:	7461                	lui	s0,0xffff8
  6c:	4c61                	li	s8,24
  6e:	6e65                	lui	t3,0x19
  70:	00687467          	0x687467
  74:	6170                	flw	fa2,68(a0)
  76:	6972                	flw	fs2,28(sp)
  78:	7974                	flw	fa3,116(a0)
  7a:	7500                	flw	fs0,40(a0)
  7c:	7261                	lui	tp,0xffff8
  7e:	5f74                	lw	a3,124(a4)
  80:	74697277          	0x74697277
  84:	0065                	c.nop	25
  86:	5f5f 6975 746e      	0x746e69755f5f
  8c:	745f3233          	0x745f3233
  90:	6300                	flw	fs0,0(a4)
  92:	6f6c                	flw	fa1,92(a4)
  94:	745f6b63          	bltu	t5,t0,7ea <_heap_size+0x7ea>
  98:	4f00                	lw	s0,24(a4)
  9a:	5455                	li	s0,-11
  9c:	5550                	lw	a2,44(a0)
  9e:	5f54                	lw	a3,60(a4)
  a0:	4e45                	li	t3,17
  a2:	4241                	li	tp,16
  a4:	454c                	lw	a1,12(a0)
  a6:	4f00                	lw	s0,24(a4)
  a8:	5455                	li	s0,-11
  aa:	5550                	lw	a2,44(a0)
  ac:	0054                	addi	a3,sp,4
  ae:	636d                	lui	t1,0x1b
  b0:	7561                	lui	a0,0xffff8
  b2:	47006573          	csrrsi	a0,0x470,0
  b6:	554e                	lw	a0,240(sp)
  b8:	4320                	lw	s0,64(a4)
  ba:	3731                	jal	ffffffc6 <_stack_start+0x7fffe406>
  bc:	3120                	fld	fs0,96(a0)
  be:	2e31                	jal	3da <_heap_size+0x3da>
  c0:	2e31                	jal	3dc <_heap_size+0x3dc>
  c2:	2030                	fld	fa2,64(s0)
  c4:	6d2d                	lui	s10,0xb
  c6:	7261                	lui	tp,0xffff8
  c8:	723d6863          	bltu	s10,gp,7f8 <_heap_size+0x7f8>
  cc:	3376                	fld	ft6,376(sp)
  ce:	6932                	flw	fs2,12(sp)
  d0:	206d                	jal	17a <_heap_size+0x17a>
  d2:	6d2d                	lui	s10,0xb
  d4:	6261                	lui	tp,0x18
  d6:	3d69                	jal	ffffff70 <_stack_start+0x7fffe3b0>
  d8:	6c69                	lui	s8,0x1a
  da:	3370                	fld	fa2,224(a4)
  dc:	2032                	fld	ft0,264(sp)
  de:	6d2d                	lui	s10,0xb
  e0:	7574                	flw	fa3,108(a0)
  e2:	656e                	flw	fa0,216(sp)
  e4:	723d                	lui	tp,0xfffef
  e6:	656b636f          	jal	t1,b673c <_stack_size+0xb5f3c>
  ea:	2074                	fld	fa3,192(s0)
  ec:	6d2d                	lui	s10,0xb
  ee:	7261                	lui	tp,0xffff8
  f0:	723d6863          	bltu	s10,gp,820 <_stack_size+0x20>
  f4:	3376                	fld	ft6,376(sp)
  f6:	6932                	flw	fs2,12(sp)
  f8:	206d                	jal	1a2 <_heap_size+0x1a2>
  fa:	672d                	lui	a4,0xb
  fc:	2d20                	fld	fs0,88(a0)
  fe:	2d20334f          	0x2d20334f
 102:	6e66                	flw	ft8,88(sp)
 104:	6e692d6f          	jal	s10,927ea <_stack_size+0x91fea>
 108:	696c                	flw	fa1,84(a0)
 10a:	656e                	flw	fa0,216(sp)
 10c:	2d20                	fld	fs0,88(a0)
 10e:	6e66                	flw	ft8,88(sp)
 110:	6f632d6f          	jal	s10,32806 <_stack_size+0x32006>
 114:	6d6d                	lui	s10,0x1b
 116:	2d206e6f          	jal	t3,63e8 <_stack_size+0x5be8>
 11a:	7366                	flw	ft6,120(sp)
 11c:	7274                	flw	fa3,100(a2)
 11e:	6369                	lui	t1,0x1a
 120:	2d74                	fld	fa3,216(a0)
 122:	6f76                	flw	ft10,92(sp)
 124:	616c                	flw	fa1,68(a0)
 126:	6974                	flw	fa3,84(a0)
 128:	656c                	flw	fa1,76(a0)
 12a:	622d                	lui	tp,0xb
 12c:	7469                	lui	s0,0xffffa
 12e:	6966                	flw	fs2,88(sp)
 130:	6c65                	lui	s8,0x19
 132:	7364                	flw	fs1,100(a4)
 134:	7300                	flw	fs0,32(a4)
 136:	6f68                	flw	fa0,92(a4)
 138:	7472                	flw	fs0,60(sp)
 13a:	7520                	flw	fs0,104(a0)
 13c:	736e                	flw	ft6,248(sp)
 13e:	6769                	lui	a4,0x1a
 140:	656e                	flw	fa0,216(sp)
 142:	2064                	fld	fs1,192(s0)
 144:	6e69                	lui	t3,0x1a
 146:	0074                	addi	a3,sp,12
 148:	4144                	lw	s1,4(a0)
 14a:	4154                	lw	a3,4(a0)
 14c:	4300                	lw	s0,0(a4)
 14e:	454c                	lw	a1,12(a0)
 150:	5241                	li	tp,-16
 152:	49545f53          	0x49545f53
 156:	00534b43          	fmadd.s	fs6,ft6,ft5,ft0,rmm
 15a:	7274                	flw	fa3,100(a2)
 15c:	7061                	c.lui	zero,0xffff8
 15e:	695f 646e 6375      	0x6375646e695f
 164:	6465                	lui	s0,0x19
 166:	655f 7262 6165      	0x61657262655f
 16c:	6c63006b          	0x6c63006b
 170:	446b636f          	jal	t1,b65b6 <_stack_size+0xb5db6>
 174:	7669                	lui	a2,0xffffa
 176:	6469                	lui	s0,0x1a
 178:	7265                	lui	tp,0xffff9
 17a:	6c00                	flw	fs0,24(s0)
 17c:	20676e6f          	jal	t3,76382 <_stack_size+0x75b82>
 180:	6f64                	flw	fs1,92(a4)
 182:	6275                	lui	tp,0x1d
 184:	656c                	flw	fa1,76(a0)
 186:	4700                	lw	s0,8(a4)
 188:	6970                	flw	fa2,84(a0)
 18a:	65525f6f          	jal	t5,25fde <_stack_size+0x257de>
 18e:	56450067          	jr	1380(a0) # ffff8564 <_stack_start+0x7fff69a4>
 192:	4e45                	li	t3,17
 194:	7500                	flw	fs0,40(a0)
 196:	7261                	lui	tp,0xffff8
 198:	5f74                	lw	a3,124(a4)
 19a:	7061                	c.lui	zero,0xffff8
 19c:	6c70                	flw	fa2,92(s0)
 19e:	4379                	li	t1,30
 1a0:	69666e6f          	jal	t3,66836 <_stack_size+0x66036>
 1a4:	6c660067          	jr	1734(a2) # ffffa6c6 <_stack_start+0x7fff8b06>
 1a8:	7361                	lui	t1,0xffff8
 1aa:	6568                	flw	fa0,76(a0)
 1ac:	4e490073          	0x4e490073
 1b0:	5550                	lw	a2,44(a0)
 1b2:	0054                	addi	a3,sp,4
 1b4:	6e75                	lui	t3,0x1d
 1b6:	6e676973          	csrrsi	s2,0x6e6,14
 1ba:	6465                	lui	s0,0x19
 1bc:	6320                	flw	fs0,64(a4)
 1be:	6168                	flw	fa0,68(a0)
 1c0:	0072                	c.slli	zero,0x1c
 1c2:	726f6873          	csrrsi	a6,0x726,30
 1c6:	2074                	fld	fa3,192(s0)
 1c8:	6e69                	lui	t3,0x1a
 1ca:	0074                	addi	a3,sp,12
 1cc:	6954                	flw	fa3,20(a0)
 1ce:	656d                	lui	a0,0x1b
 1d0:	5f72                	lw	t5,60(sp)
 1d2:	6552                	flw	fa0,20(sp)
 1d4:	72690067          	jr	1830(s2)
 1d8:	4371                	li	t1,28
 1da:	6c61                	lui	s8,0x18
 1dc:	626c                	flw	fa1,68(a2)
 1de:	6361                	lui	t1,0x18
 1e0:	6175006b          	0x6175006b
 1e4:	7472                	flw	fs0,60(sp)
 1e6:	666e6f43          	fmadd.q	ft10,ft8,ft6,fa2,unknown
 1ea:	6769                	lui	a4,0x1a
 1ec:	4600                	lw	s0,8(a2)
 1ee:	4152                	lw	sp,20(sp)
 1f0:	454d                	li	a0,19
 1f2:	435f 4e4f 4946      	0x49464e4f435f
 1f8:	6f630047          	fmsub.q	ft0,ft6,fs6,fa3,rne
 1fc:	666e                	flw	fa2,216(sp)
 1fe:	6769                	lui	a4,0x1a
 200:	5f00                	lw	s0,56(a4)
 202:	755f 6e69 3174      	0x31746e69755f
 208:	5f36                	lw	t5,108(sp)
 20a:	0074                	addi	a3,sp,12
 20c:	6155                	addi	sp,sp,304
 20e:	7472                	flw	fs0,60(sp)
 210:	435f 6e6f 6966      	0x69666e6f435f
 216:	70670067          	jr	1798(a4) # 1a706 <_stack_size+0x19f06>
 21a:	6f69                	lui	t5,0x1a
 21c:	695f 006e 6175      	0x6175006e695f
 222:	7472                	flw	fs0,60(sp)
 224:	775f 6972 6574      	0x65746972775f
 22a:	7641                	lui	a2,0xffff0
 22c:	6961                	lui	s2,0x18
 22e:	616c                	flw	fa1,68(a0)
 230:	6962                	flw	fs2,24(sp)
 232:	696c                	flw	fa1,84(a0)
 234:	7974                	flw	fa3,116(a0)
 236:	6d00                	flw	fs0,24(a0)
 238:	7674                	flw	fa3,108(a2)
 23a:	6c61                	lui	s8,0x18
 23c:	4300                	lw	s0,0(a4)
 23e:	4f4c                	lw	a1,28(a4)
 240:	445f4b43          	0x445f4b43
 244:	5649                	li	a2,-14
 246:	4449                	li	s0,18
 248:	5245                	li	tp,-15
 24a:	6500                	flw	fs0,8(a0)
 24c:	6378                	flw	fa4,68(a4)
 24e:	7065                	c.lui	zero,0xffff9
 250:	6974                	flw	fa3,84(a0)
 252:	695f6e6f          	jal	t3,f70e6 <_stack_size+0xf68e6>
 256:	736e                	flw	ft6,248(sp)
 258:	7274                	flw	fa3,100(a2)
 25a:	5300                	lw	s0,32(a4)
 25c:	4154                	lw	a3,4(a0)
 25e:	5554                	lw	a3,44(a0)
 260:	41560053          	0x41560053
 264:	554c                	lw	a1,44(a0)
 266:	0045                	c.nop	17
 268:	636f6c63          	bltu	t5,s6,8a0 <_stack_size+0xa0>
 26c:	616d006b          	0x616d006b
 270:	6e69                	lui	t3,0x1a
 272:	7300                	flw	fs0,32(a4)
 274:	6f74                	flw	fa3,92(a4)
 276:	0070                	addi	a2,sp,12
 278:	7865                	lui	a6,0xffff9
 27a:	74706563          	bltu	zero,t2,9c4 <_stack_size+0x1c4>
 27e:	6f69                	lui	t5,0x1a
 280:	5f6e                	lw	t5,248(sp)
 282:	73756163          	bltu	a0,s7,9a4 <_stack_size+0x1a4>
 286:	0065                	c.nop	25
 288:	6155                	addi	sp,sp,304
 28a:	7472                	flw	fs0,60(sp)
 28c:	6150                	flw	fa2,4(a0)
 28e:	6972                	flw	fs2,28(sp)
 290:	7974                	flw	fa3,116(a0)
 292:	6200                	flw	fs0,0(a2)
 294:	6972                	flw	fs2,28(sp)
 296:	7965                	lui	s2,0xffff9
 298:	635f 7472 532e      	0x532e7472635f
 29e:	2f00                	fld	fs0,24(a4)
 2a0:	6f68                	flw	fa0,92(a4)
 2a2:	656d                	lui	a0,0x1b
 2a4:	6168742f          	0x6168742f
 2a8:	6869                	lui	a6,0x1a
 2aa:	2f61                	jal	a42 <_stack_size+0x242>
 2ac:	6b726f77          	0x6b726f77
 2b0:	7475742f          	0x7475742f
 2b4:	6169726f          	jal	tp,978ca <_stack_size+0x970ca>
 2b8:	2f6c                	fld	fa1,216(a4)
 2ba:	7262                	flw	ft4,56(sp)
 2bc:	6569                	lui	a0,0x1a
 2be:	5f79                	li	t5,-2
 2c0:	74666f73          	csrrsi	t5,0x746,12
 2c4:	65726177          	0x65726177
 2c8:	544f532f          	0x544f532f
 2cc:	5f42                	lw	t5,48(sp)
 2ce:	7541                	lui	a0,0xffff0
 2d0:	31303267          	0x31303267
 2d4:	5f39                	li	t5,-18
 2d6:	6954                	flw	fa3,20(a0)
 2d8:	796e                	flw	fs2,248(sp)
 2da:	4541                	li	a0,16
 2dc:	4e470053          	0x4e470053
 2e0:	2055                	jal	384 <_heap_size+0x384>
 2e2:	5341                	li	t1,-16
 2e4:	3220                	fld	fs0,96(a2)
 2e6:	332e                	fld	ft6,232(sp)
 2e8:	69730037          	lui	zero,0x69730
 2ec:	657a                	flw	fa0,156(sp)
 2ee:	745f 5f00 755f      	0x755f5f00745f
 2f4:	6e69                	lui	t3,0x1a
 2f6:	7074                	flw	fa3,100(s0)
 2f8:	7274                	flw	fa3,100(a2)
 2fa:	745f 6d00 6d65      	0x6d656d00745f
 300:	31797063          	bgeu	s2,s7,600 <_heap_size+0x600>
 304:	6d00                	flw	fs0,24(a0)
 306:	6d65                	lui	s10,0x19
 308:	31706d63          	bltu	zero,s7,622 <_heap_size+0x622>
 30c:	5f00                	lw	s0,56(a4)
 30e:	625f 6975 746c      	0x746c6975625f
 314:	6e69                	lui	t3,0x1a
 316:	6d5f 6d65 7063      	0x70636d656d5f
 31c:	0079                	c.nop	30
 31e:	656c                	flw	fa1,76(a0)
 320:	646e                	flw	fs0,216(sp)
 322:	7300                	flw	fs0,32(a4)
 324:	616d                	addi	sp,sp,240
 326:	6c6c                	flw	fa1,92(s0)
 328:	4100                	lw	s0,0(a0)
 32a:	5345                	li	t1,-15
 32c:	635f 7874 7800      	0x78007874635f
 332:	6974                	flw	fa3,84(a0)
 334:	656d                	lui	a0,0x1b
 336:	7400                	flw	fs0,40(s0)
 338:	6d65                	lui	s10,0x19
 33a:	6170                	flw	fa2,68(a0)
 33c:	7300                	flw	fs0,32(a4)
 33e:	6174                	flw	fa3,68(a0)
 340:	6574                	flw	fa3,76(a0)
 342:	7400                	flw	fs0,40(s0)
 344:	6d65                	lui	s10,0x19
 346:	0070                	addi	a2,sp,12
 348:	7372                	flw	ft6,60(sp)
 34a:	6f62                	flw	ft10,24(sp)
 34c:	0078                	addi	a4,sp,12
 34e:	4541                	li	a0,16
 350:	43455f53          	0x43455f53
 354:	5f42                	lw	t5,48(sp)
 356:	6564                	flw	fs1,76(a0)
 358:	70797263          	bgeu	s2,t2,a5c <_stack_size+0x25c>
 35c:	0074                	addi	a3,sp,12
 35e:	3875                	jal	fffffc1a <_stack_start+0x7fffe05a>
 360:	6d74                	flw	fa3,92(a0)
 362:	0070                	addi	a2,sp,12
 364:	74617473          	csrrci	s0,0x746,2
 368:	5f65                	li	t5,-7
 36a:	0074                	addi	a3,sp,12
 36c:	5f5f 6975 746e      	0x746e69755f5f
 372:	5f38                	lw	a4,120(a4)
 374:	0074                	addi	a3,sp,12
 376:	6e49                	lui	t3,0x12
 378:	4d76                	lw	s10,92(sp)
 37a:	7869                	lui	a6,0xffffa
 37c:	756c6f43          	0x756c6f43
 380:	6e6d                	lui	t3,0x1b
 382:	64410073          	0x64410073
 386:	5264                	lw	s1,100(a2)
 388:	646e756f          	jal	a0,e79ce <_stack_size+0xe71ce>
 38c:	0079654b          	fnmsub.s	fa0,fs2,ft7,ft0,unknown
 390:	6f72                	flw	ft10,28(sp)
 392:	6e75                	lui	t3,0x1d
 394:	0064                	addi	s1,sp,12
 396:	6352                	flw	ft6,20(sp)
 398:	41006e6f          	jal	t3,67a8 <_stack_size+0x5fa8>
 39c:	5345                	li	t1,-15
 39e:	455f 4243 655f      	0x655f4243455f
 3a4:	636e                	flw	ft6,216(sp)
 3a6:	7972                	flw	fs2,60(sp)
 3a8:	7470                	flw	fa2,108(s0)
 3aa:	4900                	lw	s0,16(a0)
 3ac:	766e                	flw	fa2,248(sp)
 3ae:	66696853          	0x66696853
 3b2:	5274                	lw	a3,100(a2)
 3b4:	0073776f          	jal	a4,37bba <_stack_size+0x373ba>
 3b8:	4579654b          	0x4579654b
 3bc:	7078                	flw	fa4,100(s0)
 3be:	6e61                	lui	t3,0x18
 3c0:	6e6f6973          	csrrsi	s2,0x6e6,30
 3c4:	4900                	lw	s0,16(a0)
 3c6:	766e                	flw	fa2,248(sp)
 3c8:	68706943          	fmadd.s	fs2,ft0,ft7,fa3,unknown
 3cc:	7265                	lui	tp,0xffff9
 3ce:	4900                	lw	s0,16(a0)
 3d0:	766e                	flw	fa2,248(sp)
 3d2:	42627553          	0x42627553
 3d6:	7479                	lui	s0,0xffffe
 3d8:	7365                	lui	t1,0xffff9
 3da:	4100                	lw	s0,0(a0)
 3dc:	5345                	li	t1,-15
 3de:	695f 696e 5f74      	0x5f74696e695f
 3e4:	00787463          	bgeu	a6,t2,3ec <_heap_size+0x3ec>

Disassembly of section .debug_line_str:

00000000 <.debug_line_str>:
   0:	2f637273          	csrrci	tp,0x2f6,6
   4:	7262                	flw	ft4,56(sp)
   6:	6569                	lui	a0,0x1a
   8:	5f79                	li	t5,-2
   a:	616d                	addi	sp,sp,240
   c:	6e69                	lui	t3,0x1a
   e:	632e                	flw	ft6,200(sp)
  10:	2f00                	fld	fs0,24(a4)
  12:	6f68                	flw	fa0,92(a4)
  14:	656d                	lui	a0,0x1b
  16:	6168742f          	0x6168742f
  1a:	6869                	lui	a6,0x1a
  1c:	2f61                	jal	7b4 <_heap_size+0x7b4>
  1e:	6b726f77          	0x6b726f77
  22:	7475742f          	0x7475742f
  26:	6169726f          	jal	tp,9763c <_stack_size+0x96e3c>
  2a:	2f6c                	fld	fa1,216(a4)
  2c:	7262                	flw	ft4,56(sp)
  2e:	6569                	lui	a0,0x1a
  30:	5f79                	li	t5,-2
  32:	74666f73          	csrrsi	t5,0x746,12
  36:	65726177          	0x65726177
  3a:	5345412f          	0x5345412f
  3e:	315f 3832 6c00      	0x6c003832315f
  44:	6269                	lui	tp,0x1a
  46:	72730073          	0x72730073
  4a:	6f2f0063          	beq	t5,s2,72a <_heap_size+0x72a>
  4e:	7470                	flw	fa2,108(s0)
  50:	7369722f          	0x7369722f
  54:	32337663          	bgeu	t1,gp,380 <_heap_size+0x380>
  58:	6d69                	lui	s10,0x1a
  5a:	7369722f          	0x7369722f
  5e:	32337663          	bgeu	t1,gp,38a <_heap_size+0x38a>
  62:	752d                	lui	a0,0xfffeb
  64:	6b6e                	flw	fs6,216(sp)
  66:	6f6e                	flw	ft10,216(sp)
  68:	652d6e77          	0x652d6e77
  6c:	666c                	flw	fa1,76(a2)
  6e:	636e692f          	0x636e692f
  72:	756c                	flw	fa1,108(a0)
  74:	6564                	flw	fs1,76(a0)
  76:	63616d2f          	0x63616d2f
  7a:	6968                	flw	fa0,84(a0)
  7c:	656e                	flw	fa0,216(sp)
  7e:	2f00                	fld	fs0,24(a4)
  80:	2f74706f          	j	47b76 <_stack_size+0x47376>
  84:	6972                	flw	fs2,28(sp)
  86:	33766373          	csrrsi	t1,mhpmevent23,12
  8a:	6932                	flw	fs2,12(sp)
  8c:	2f6d                	jal	846 <_stack_size+0x46>
  8e:	6972                	flw	fs2,28(sp)
  90:	33766373          	csrrsi	t1,mhpmevent23,12
  94:	2d32                	fld	fs10,264(sp)
  96:	6e75                	lui	t3,0x1d
  98:	776f6e6b          	0x776f6e6b
  9c:	2d6e                	fld	fs10,216(sp)
  9e:	6c65                	lui	s8,0x19
  a0:	2f66                	fld	ft10,88(sp)
  a2:	6e69                	lui	t3,0x1a
  a4:	64756c63          	bltu	a0,t2,6fc <_heap_size+0x6fc>
  a8:	2f65                	jal	860 <_stack_size+0x60>
  aa:	00737973          	csrrci	s2,0x7,6
  ae:	74706f2f          	0x74706f2f
  b2:	7369722f          	0x7369722f
  b6:	32337663          	bgeu	t1,gp,3e2 <_heap_size+0x3e2>
  ba:	6d69                	lui	s10,0x1a
  bc:	7369722f          	0x7369722f
  c0:	32337663          	bgeu	t1,gp,3ec <_heap_size+0x3ec>
  c4:	752d                	lui	a0,0xfffeb
  c6:	6b6e                	flw	fs6,216(sp)
  c8:	6f6e                	flw	ft10,216(sp)
  ca:	652d6e77          	0x652d6e77
  ce:	666c                	flw	fa1,76(a2)
  d0:	636e692f          	0x636e692f
  d4:	756c                	flw	fa1,108(a0)
  d6:	6564                	flw	fs1,76(a0)
  d8:	7500                	flw	fs0,40(a0)
  da:	7261                	lui	tp,0xffff8
  dc:	2e74                	fld	fa3,216(a2)
  de:	0068                	addi	a0,sp,12
  e0:	645f 6665 7561      	0x75616665645f
  e6:	746c                	flw	fa1,108(s0)
  e8:	745f 7079 7365      	0x73657079745f
  ee:	682e                	flw	fa6,200(sp)
  f0:	5f00                	lw	s0,56(a4)
  f2:	69647473          	csrrci	s0,0x696,8
  f6:	746e                	flw	fs0,248(sp)
  f8:	682e                	flw	fa6,200(sp)
  fa:	7400                	flw	fs0,40(s0)
  fc:	6d69                	lui	s10,0x1a
  fe:	7265                	lui	tp,0xffff9
 100:	682e                	flw	fa6,200(sp)
 102:	6700                	flw	fs0,8(a4)
 104:	6970                	flw	fa2,84(a0)
 106:	00682e6f          	jal	t3,8210c <_stack_size+0x8190c>
 10a:	6974                	flw	fa3,84(a0)
 10c:	656d                	lui	a0,0x1b
 10e:	682e                	flw	fa6,200(sp)
 110:	6200                	flw	fs0,0(a2)
 112:	6972                	flw	fs2,28(sp)
 114:	7965                	lui	s2,0xffff9
 116:	635f 7472 532e      	0x532e7472635f
 11c:	2f00                	fld	fs0,24(a4)
 11e:	6f68                	flw	fa0,92(a4)
 120:	656d                	lui	a0,0x1b
 122:	6168742f          	0x6168742f
 126:	6869                	lui	a6,0x1a
 128:	2f61                	jal	8c0 <_stack_size+0xc0>
 12a:	6b726f77          	0x6b726f77
 12e:	7475742f          	0x7475742f
 132:	6169726f          	jal	tp,97748 <_stack_size+0x96f48>
 136:	2f6c                	fld	fa1,216(a4)
 138:	7262                	flw	ft4,56(sp)
 13a:	6569                	lui	a0,0x1a
 13c:	5f79                	li	t5,-2
 13e:	74666f73          	csrrsi	t5,0x746,12
 142:	65726177          	0x65726177
 146:	544f532f          	0x544f532f
 14a:	5f42                	lw	t5,48(sp)
 14c:	7541                	lui	a0,0xffff0
 14e:	31303267          	0x31303267
 152:	5f39                	li	t5,-18
 154:	6954                	flw	fa3,20(a0)
 156:	796e                	flw	fs2,248(sp)
 158:	4541                	li	a0,16
 15a:	72730053          	0x72730053
 15e:	656d2f63          	0x656d2f63
 162:	636d                	lui	t1,0x1b
 164:	7970                	flw	fa2,116(a0)
 166:	632e                	flw	ft6,200(sp)
 168:	2f00                	fld	fs0,24(a4)
 16a:	2f74706f          	j	47c60 <_stack_size+0x47460>
 16e:	6972                	flw	fs2,28(sp)
 170:	33766373          	csrrsi	t1,mhpmevent23,12
 174:	6732                	flw	fa4,12(sp)
 176:	696c2f63          	0x696c2f63
 17a:	2f62                	fld	ft10,24(sp)
 17c:	2f636367          	0x2f636367
 180:	6972                	flw	fs2,28(sp)
 182:	33766373          	csrrsi	t1,mhpmevent23,12
 186:	2d32                	fld	fs10,264(sp)
 188:	6e75                	lui	t3,0x1d
 18a:	776f6e6b          	0x776f6e6b
 18e:	2d6e                	fld	fs10,216(sp)
 190:	6c65                	lui	s8,0x19
 192:	2f66                	fld	ft10,88(sp)
 194:	3131                	jal	fffffda0 <_stack_start+0x7fffe1e0>
 196:	312e                	fld	ft2,232(sp)
 198:	302e                	fld	ft0,232(sp)
 19a:	636e692f          	0x636e692f
 19e:	756c                	flw	fa1,108(a0)
 1a0:	6564                	flw	fs1,76(a0)
 1a2:	2f00                	fld	fs0,24(a4)
 1a4:	2f74706f          	j	47c9a <_stack_size+0x4749a>
 1a8:	6972                	flw	fs2,28(sp)
 1aa:	33766373          	csrrsi	t1,mhpmevent23,12
 1ae:	6732                	flw	fa4,12(sp)
 1b0:	69722f63          	0x69722f63
 1b4:	33766373          	csrrsi	t1,mhpmevent23,12
 1b8:	2d32                	fld	fs10,264(sp)
 1ba:	6e75                	lui	t3,0x1d
 1bc:	776f6e6b          	0x776f6e6b
 1c0:	2d6e                	fld	fs10,216(sp)
 1c2:	6c65                	lui	s8,0x19
 1c4:	2f66                	fld	ft10,88(sp)
 1c6:	6e69                	lui	t3,0x1a
 1c8:	64756c63          	bltu	a0,t2,820 <_stack_size+0x20>
 1cc:	2f65                	jal	984 <_stack_size+0x184>
 1ce:	616d                	addi	sp,sp,240
 1d0:	6e696863          	bltu	s2,t1,8c0 <_stack_size+0xc0>
 1d4:	0065                	c.nop	25
 1d6:	74706f2f          	0x74706f2f
 1da:	7369722f          	0x7369722f
 1de:	32337663          	bgeu	t1,gp,50a <_heap_size+0x50a>
 1e2:	722f6367          	0x722f6367
 1e6:	7369                	lui	t1,0xffffa
 1e8:	32337663          	bgeu	t1,gp,514 <_heap_size+0x514>
 1ec:	752d                	lui	a0,0xfffeb
 1ee:	6b6e                	flw	fs6,216(sp)
 1f0:	6f6e                	flw	ft10,216(sp)
 1f2:	652d6e77          	0x652d6e77
 1f6:	666c                	flw	fa1,76(a2)
 1f8:	636e692f          	0x636e692f
 1fc:	756c                	flw	fa1,108(a0)
 1fe:	6564                	flw	fs1,76(a0)
 200:	7379732f          	0x7379732f
 204:	7300                	flw	fs0,32(a4)
 206:	6474                	flw	fa3,76(s0)
 208:	6564                	flw	fs1,76(a0)
 20a:	2e66                	fld	ft8,88(sp)
 20c:	0068                	addi	a0,sp,12
 20e:	623c                	flw	fa5,64(a2)
 210:	6975                	lui	s2,0x1d
 212:	746c                	flw	fa1,108(s0)
 214:	692d                	lui	s2,0xb
 216:	3e6e                	fld	ft8,248(sp)
 218:	7300                	flw	fs0,32(a4)
 21a:	6372                	flw	ft6,28(sp)
 21c:	7365612f          	0x7365612f
 220:	632e                	flw	ft6,200(sp)
 222:	6100                	flw	fs0,0(a0)
 224:	7365                	lui	t1,0xffff9
 226:	682e                	flw	fa6,200(sp)
	...

Disassembly of section .comment:

00000000 <.comment>:
   0:	3a434347          	fmsub.d	ft6,ft6,ft4,ft7,rmm
   4:	2820                	fld	fs0,80(s0)
   6:	29554e47          	fmsub.s	ft8,fa0,fs5,ft5,rmm
   a:	3120                	fld	fs0,96(a0)
   c:	2e31                	jal	328 <_heap_size+0x328>
   e:	2e31                	jal	32a <_heap_size+0x32a>
  10:	0030                	addi	a2,sp,8

Disassembly of section .riscv.attributes:

00000000 <.riscv.attributes>:
   0:	2441                	jal	280 <_heap_size+0x280>
   2:	0000                	unimp
   4:	7200                	flw	fs0,32(a2)
   6:	7369                	lui	t1,0xffffa
   8:	01007663          	bgeu	zero,a6,14 <_heap_size+0x14>
   c:	001a                	c.slli	zero,0x6
   e:	0000                	unimp
  10:	1004                	addi	s1,sp,32
  12:	7205                	lui	tp,0xfffe1
  14:	3376                	fld	ft6,376(sp)
  16:	6932                	flw	fs2,12(sp)
  18:	7032                	flw	ft0,44(sp)
  1a:	5f30                	lw	a2,120(a4)
  1c:	326d                	jal	fffff9c6 <_stack_start+0x7fffde06>
  1e:	3070                	fld	fa2,224(s0)
  20:	0800                	addi	s0,sp,16
  22:	0a01                	addi	s4,s4,0
  24:	0b              	Address 0x0000000000000024 is out of bounds.


Disassembly of section .debug_frame:

00000000 <.debug_frame>:
   0:	000c                	0xc
   2:	0000                	unimp
   4:	ffff                	0xffff
   6:	ffff                	0xffff
   8:	7c010003          	lb	zero,1984(sp)
   c:	0d01                	addi	s10,s10,0
   e:	0002                	c.slli64	zero
  10:	000c                	0xc
  12:	0000                	unimp
  14:	0000                	unimp
  16:	0000                	unimp
  18:	0114                	addi	a3,sp,128
  1a:	8000                	0x8000
  1c:	0018                	0x18
  1e:	0000                	unimp
  20:	000c                	0xc
  22:	0000                	unimp
  24:	0000                	unimp
  26:	0000                	unimp
  28:	012c                	addi	a1,sp,136
  2a:	8000                	0x8000
  2c:	0014                	0x14
  2e:	0000                	unimp
  30:	001c                	0x1c
  32:	0000                	unimp
  34:	0000                	unimp
  36:	0000                	unimp
  38:	0140                	addi	s0,sp,132
  3a:	8000                	0x8000
  3c:	0030                	addi	a2,sp,8
  3e:	0000                	unimp
  40:	0e44                	addi	s1,sp,788
  42:	4810                	lw	a2,16(s0)
  44:	0288                	addi	a0,sp,320
  46:	0181                	addi	gp,gp,0
  48:	c154                	sw	a3,4(a0)
  4a:	c848                	sw	a0,20(s0)
  4c:	0e44                	addi	s1,sp,788
  4e:	0000                	unimp
  50:	001c                	0x1c
  52:	0000                	unimp
  54:	0000                	unimp
  56:	0000                	unimp
  58:	0170                	addi	a2,sp,140
  5a:	8000                	0x8000
  5c:	0038                	addi	a4,sp,8
  5e:	0000                	unimp
  60:	0e44                	addi	s1,sp,788
  62:	4810                	lw	a2,16(s0)
  64:	0288                	addi	a0,sp,320
  66:	0181                	addi	gp,gp,0
  68:	c160                	sw	s0,68(a0)
  6a:	c844                	sw	s1,20(s0)
  6c:	0e44                	addi	s1,sp,788
  6e:	0000                	unimp
  70:	0030                	addi	a2,sp,8
  72:	0000                	unimp
  74:	0000                	unimp
  76:	0000                	unimp
  78:	01a8                	addi	a0,sp,200
  7a:	8000                	0x8000
  7c:	0084                	addi	s1,sp,64
  7e:	0000                	unimp
  80:	0e44                	addi	s1,sp,788
  82:	4420                	lw	s0,72(s0)
  84:	0288                	addi	a0,sp,320
  86:	895c                	0x895c
  88:	93049203          	lh	tp,-1744(s1)
  8c:	9405                	srai	s0,s0,0x21
  8e:	8106                	mv	sp,ra
  90:	0201                	addi	tp,tp,0
  92:	c144                	sw	s1,4(a0)
  94:	c844                	sw	s1,20(s0)
  96:	c944                	sw	s1,20(a0)
  98:	d244                	sw	s1,36(a2)
  9a:	d344                	sw	s1,36(a4)
  9c:	d444                	sw	s1,44(s0)
  9e:	0e44                	addi	s1,sp,788
  a0:	0000                	unimp
  a2:	0000                	unimp
  a4:	0020                	addi	s0,sp,8
  a6:	0000                	unimp
  a8:	0000                	unimp
  aa:	0000                	unimp
  ac:	1124                	addi	s1,sp,168
  ae:	8000                	0x8000
  b0:	006c                	addi	a1,sp,12
  b2:	0000                	unimp
  b4:	0e44                	addi	s1,sp,788
  b6:	4420                	lw	s0,72(s0)
  b8:	0288                	addi	a0,sp,320
  ba:	8150                	0x8150
  bc:	0201                	addi	tp,tp,0
  be:	c144                	sw	s1,4(a0)
  c0:	c844                	sw	s1,20(s0)
  c2:	0e48                	addi	a0,sp,788
  c4:	0000                	unimp
  c6:	0000                	unimp
  c8:	000c                	0xc
  ca:	0000                	unimp
  cc:	0000                	unimp
  ce:	0000                	unimp
  d0:	022c                	addi	a1,sp,264
  d2:	8000                	0x8000
  d4:	003c                	addi	a5,sp,8
  d6:	0000                	unimp
  d8:	000c                	0xc
  da:	0000                	unimp
  dc:	0000                	unimp
  de:	0000                	unimp
  e0:	0268                	addi	a0,sp,268
  e2:	8000                	0x8000
  e4:	000c                	0xc
  e6:	0000                	unimp
  e8:	000c                	0xc
  ea:	0000                	unimp
  ec:	ffff                	0xffff
  ee:	ffff                	0xffff
  f0:	7c010003          	lb	zero,1984(sp)
  f4:	0d01                	addi	s10,s10,0
  f6:	0002                	c.slli64	zero
  f8:	003c                	addi	a5,sp,8
  fa:	0000                	unimp
  fc:	00e8                	addi	a0,sp,76
  fe:	0000                	unimp
 100:	0274                	addi	a3,sp,268
 102:	8000                	0x8000
 104:	0180                	addi	s0,sp,192
 106:	0000                	unimp
 108:	0e44                	addi	s1,sp,788
 10a:	5820                	lw	s0,112(s0)
 10c:	0288                	addi	a0,sp,320
 10e:	0492                	slli	s1,s1,0x4
 110:	01810593          	addi	a1,sp,24
 114:	0389                	addi	t2,t2,2
 116:	6802                	flw	fa6,0(sp)
 118:	c10a                	sw	sp,128(sp)
 11a:	c844                	sw	s1,20(s0)
 11c:	c944                	sw	s1,20(a0)
 11e:	d244                	sw	s1,36(a2)
 120:	d348                	sw	a0,36(a4)
 122:	0e44                	addi	s1,sp,788
 124:	4400                	lw	s0,8(s0)
 126:	0ab0020b          	0xab0020b
 12a:	44c1                	li	s1,16
 12c:	44c8                	lw	a0,12(s1)
 12e:	44c9                	li	s1,18
 130:	48d2                	lw	a7,20(sp)
 132:	000e44d3          	fadd.s	fs1,ft8,ft0,rmm
 136:	0b44                	addi	s1,sp,404
 138:	000c                	0xc
 13a:	0000                	unimp
 13c:	00e8                	addi	a0,sp,76
 13e:	0000                	unimp
 140:	03f4                	addi	a3,sp,460
 142:	8000                	0x8000
 144:	0074                	addi	a3,sp,12
 146:	0000                	unimp
 148:	000c                	0xc
 14a:	0000                	unimp
 14c:	ffff                	0xffff
 14e:	ffff                	0xffff
 150:	7c010003          	lb	zero,1984(sp)
 154:	0d01                	addi	s10,s10,0
 156:	0002                	c.slli64	zero
 158:	0044                	addi	s1,sp,4
 15a:	0000                	unimp
 15c:	0148                	addi	a0,sp,132
 15e:	0000                	unimp
 160:	0468                	addi	a0,sp,524
 162:	8000                	0x8000
 164:	0244                	addi	s1,sp,260
 166:	0000                	unimp
 168:	0e48                	addi	a0,sp,788
 16a:	7030                	flw	fa2,96(s0)
 16c:	0188                	addi	a0,sp,192
 16e:	0289                	addi	t0,t0,2
 170:	0392                	slli	t2,t2,0x4
 172:	05940493          	addi	s1,s0,89 # ffffe059 <_stack_start+0x7fffc499>
 176:	0695                	addi	a3,a3,5
 178:	0796                	slli	a5,a5,0x5
 17a:	09980897          	auipc	a7,0x9980
 17e:	0a99                	addi	s5,s5,6
 180:	0b9a                	slli	s7,s7,0x6
 182:	0a015803          	lhu	a6,160(sp)
 186:	44c8                	lw	a0,12(s1)
 188:	44c9                	li	s1,18
 18a:	44d2                	lw	s1,20(sp)
 18c:	44d444d3          	0x44d444d3
 190:	44d5                	li	s1,21
 192:	44d6                	lw	s1,84(sp)
 194:	44d844d7          	0x44d844d7
 198:	44d9                	li	s1,22
 19a:	44da                	lw	s1,148(sp)
 19c:	000e                	c.slli	zero,0x3
 19e:	0b44                	addi	s1,sp,404
 1a0:	000c                	0xc
 1a2:	0000                	unimp
 1a4:	0148                	addi	a0,sp,132
 1a6:	0000                	unimp
 1a8:	06ac                	addi	a1,sp,840
 1aa:	8000                	0x8000
 1ac:	0110                	addi	a2,sp,128
 1ae:	0000                	unimp
 1b0:	000c                	0xc
 1b2:	0000                	unimp
 1b4:	0148                	addi	a0,sp,132
 1b6:	0000                	unimp
 1b8:	07bc                	addi	a5,sp,968
 1ba:	8000                	0x8000
 1bc:	010c                	addi	a1,sp,128
 1be:	0000                	unimp
 1c0:	000c                	0xc
 1c2:	0000                	unimp
 1c4:	0148                	addi	a0,sp,132
 1c6:	0000                	unimp
 1c8:	08c8                	addi	a0,sp,84
 1ca:	8000                	0x8000
 1cc:	0064                	addi	s1,sp,12
 1ce:	0000                	unimp
 1d0:	000c                	0xc
 1d2:	0000                	unimp
 1d4:	0148                	addi	a0,sp,132
 1d6:	0000                	unimp
 1d8:	092c                	addi	a1,sp,152
 1da:	8000                	0x8000
 1dc:	0024                	addi	s1,sp,8
 1de:	0000                	unimp
 1e0:	0038                	addi	a4,sp,8
 1e2:	0000                	unimp
 1e4:	0148                	addi	a0,sp,132
 1e6:	0000                	unimp
 1e8:	0950                	addi	a2,sp,148
 1ea:	8000                	0x8000
 1ec:	01f0                	addi	a2,sp,204
 1ee:	0000                	unimp
 1f0:	0e44                	addi	s1,sp,788
 1f2:	6020                	flw	fs0,64(s0)
 1f4:	0181                	addi	gp,gp,0
 1f6:	0288                	addi	a0,sp,320
 1f8:	0389                	addi	t2,t2,2
 1fa:	0896                	slli	a7,a7,0x5
 1fc:	0492                	slli	s1,s1,0x4
 1fe:	06940593          	addi	a1,s0,105
 202:	0795                	addi	a5,a5,5
 204:	c101a803          	lw	a6,-1008(gp) # 800017b8 <_bss_end+0x400>
 208:	c844                	sw	s1,20(s0)
 20a:	c944                	sw	s1,20(a0)
 20c:	d244                	sw	s1,36(a2)
 20e:	d344                	sw	s1,36(a4)
 210:	d444                	sw	s1,44(s0)
 212:	d544                	sw	s1,44(a0)
 214:	d644                	sw	s1,44(a2)
 216:	0e44                	addi	s1,sp,788
 218:	0000                	unimp
 21a:	0000                	unimp
 21c:	004c                	addi	a1,sp,4
 21e:	0000                	unimp
 220:	0148                	addi	a0,sp,132
 222:	0000                	unimp
 224:	0b40                	addi	s0,sp,404
 226:	8000                	0x8000
 228:	01d0                	addi	a2,sp,196
 22a:	0000                	unimp
 22c:	0e44                	addi	s1,sp,788
 22e:	7860                	flw	fs0,116(s0)
 230:	0896                	slli	a7,a7,0x5
 232:	0181                	addi	gp,gp,0
 234:	0288                	addi	a0,sp,320
 236:	0389                	addi	t2,t2,2
 238:	0492                	slli	s1,s1,0x4
 23a:	06940593          	addi	a1,s0,105
 23e:	0795                	addi	a5,a5,5
 240:	0a980997          	auipc	s3,0xa980
 244:	0b99                	addi	s7,s7,6
 246:	0c9a                	slli	s9,s9,0x6
 248:	5c030d9b          	0x5c030d9b
 24c:	c101                	beqz	a0,24c <_heap_size+0x24c>
 24e:	c844                	sw	s1,20(s0)
 250:	c944                	sw	s1,20(a0)
 252:	d244                	sw	s1,36(a2)
 254:	d344                	sw	s1,36(a4)
 256:	d444                	sw	s1,44(s0)
 258:	d544                	sw	s1,44(a0)
 25a:	d644                	sw	s1,44(a2)
 25c:	d744                	sw	s1,44(a4)
 25e:	d844                	sw	s1,52(s0)
 260:	d944                	sw	s1,52(a0)
 262:	da44                	sw	s1,52(a2)
 264:	db44                	sw	s1,52(a4)
 266:	0e44                	addi	s1,sp,788
 268:	0000                	unimp
 26a:	0000                	unimp
 26c:	000c                	0xc
 26e:	0000                	unimp
 270:	0148                	addi	a0,sp,132
 272:	0000                	unimp
 274:	0d10                	addi	a2,sp,656
 276:	8000                	0x8000
 278:	010c                	addi	a1,sp,128
 27a:	0000                	unimp
 27c:	000c                	0xc
 27e:	0000                	unimp
 280:	0148                	addi	a0,sp,132
 282:	0000                	unimp
 284:	0e1c                	addi	a5,sp,784
 286:	8000                	0x8000
 288:	0064                	addi	s1,sp,12
 28a:	0000                	unimp
 28c:	0028                	addi	a0,sp,8
 28e:	0000                	unimp
 290:	0148                	addi	a0,sp,132
 292:	0000                	unimp
 294:	0e80                	addi	s0,sp,848
 296:	8000                	0x8000
 298:	00c0                	addi	s0,sp,68
 29a:	0000                	unimp
 29c:	0e44                	addi	s1,sp,788
 29e:	5820                	lw	s0,112(s0)
 2a0:	0288                	addi	a0,sp,320
 2a2:	0389                	addi	t2,t2,2
 2a4:	0492                	slli	s1,s1,0x4
 2a6:	01810593          	addi	a1,sp,24
 2aa:	8402                	jr	s0
 2ac:	44c1                	li	s1,16
 2ae:	4cc8                	lw	a0,28(s1)
 2b0:	44c9                	li	s1,18
 2b2:	44d2                	lw	s1,20(sp)
 2b4:	000e44d3          	fadd.s	fs1,ft8,ft0,rmm
 2b8:	0028                	addi	a0,sp,8
 2ba:	0000                	unimp
 2bc:	0148                	addi	a0,sp,132
 2be:	0000                	unimp
 2c0:	0f40                	addi	s0,sp,916
 2c2:	8000                	0x8000
 2c4:	0098                	addi	a4,sp,64
 2c6:	0000                	unimp
 2c8:	0e44                	addi	s1,sp,788
 2ca:	4c10                	lw	a2,24(s0)
 2cc:	0389                	addi	t2,t2,2
 2ce:	0492                	slli	s1,s1,0x4
 2d0:	8858                	0x8858
 2d2:	8102                	jr	sp
 2d4:	0201                	addi	tp,tp,0
 2d6:	c850                	sw	a2,20(s0)
 2d8:	c144                	sw	s1,4(a0)
 2da:	d24c                	sw	a1,36(a2)
 2dc:	c944                	sw	s1,20(a0)
 2de:	0e48                	addi	a0,sp,788
 2e0:	0000                	unimp
 2e2:	0000                	unimp
 2e4:	000c                	0xc
 2e6:	0000                	unimp
 2e8:	0148                	addi	a0,sp,132
 2ea:	0000                	unimp
 2ec:	0fd8                	addi	a4,sp,980
 2ee:	8000                	0x8000
 2f0:	0004                	0x4
 2f2:	0000                	unimp
 2f4:	000c                	0xc
 2f6:	0000                	unimp
 2f8:	0148                	addi	a0,sp,132
 2fa:	0000                	unimp
 2fc:	0fdc                	addi	a5,sp,980
 2fe:	8000                	0x8000
 300:	0010                	0x10
 302:	0000                	unimp
 304:	000c                	0xc
 306:	0000                	unimp
 308:	0148                	addi	a0,sp,132
 30a:	0000                	unimp
 30c:	0fec                	addi	a1,sp,988
 30e:	8000                	0x8000
 310:	0010                	0x10
	...
